(dp0
S'RYN'
p1
(S'RAYONIER REIT INC'
p2
S'Real Estate'
p3
S'2,376,077.91'
p4
tp5
sS'NDSN'
p6
(S'NORDSON CORP'
p7
S'Industrials'
p8
S'8,261,459.55'
p9
tp10
sS'EOG'
p11
(S'EOG RESOURCES INC'
p12
S'Energy'
p13
S'22,635,000.30'
p14
tp15
sS'LSTR'
p16
(S'LANDSTAR SYSTEM INC'
p17
g8
S'3,238,556.66'
p18
tp19
sS'PFPT'
p20
(S'PROOFPOINT INC'
p21
S'Information Technology'
p22
S'4,624,412.64'
p23
tp24
sS'MTCH'
p25
(S'MATCH GROUP INC'
p26
S'Communication'
p27
S'3,476,551.68'
p28
tp29
sS'GLIBA'
p30
(S'GCI LIBERTY INC CLASS A'
p31
g27
S'5,053,706.40'
p32
tp33
sS'PTC'
p34
(S'PTC INC'
p35
g22
S'5,625,145.20'
p36
tp37
sS'CPB'
p38
(S'CAMPBELL SOUP'
p39
S'Consumer Staples'
p40
S'6,049,112.94'
p41
tp42
sS'SIX'
p43
(S'SIX FLAGS ENTERTAINMENT CORP'
p44
S'Consumer Discretionary'
p45
S'1,405,228.55'
p46
tp47
sS'AN'
p48
(S'AUTONATION INC'
p49
g45
S'1,641,263.00'
p50
tp51
sS'NYT'
p52
(S'NEW YORK TIMES CLASS A'
p53
g27
S'4,890,244.38'
p54
tp55
sS'IDXX'
p56
(S'IDEXX LABORATORIES INC'
p57
S'Health Care'
p58
S'19,329,122.47'
p59
tp60
sS'YUM'
p61
(S'YUM BRANDS INC'
p62
g45
S'20,888,645.27'
p63
tp64
sS'SNDR'
p65
(S'SCHNEIDER NATIONAL INC CLASS B'
p66
g8
S'987,810.04'
p67
tp68
sS'JWN'
p69
(S'NORDSTROM INC'
p70
g45
S'1,478,741.60'
p71
tp72
sS'SBAC'
p73
(S'SBA COMMUNICATIONS REIT CORP CLASS'
p74
g3
S'24,655,510.00'
p75
tp76
sS'JBHT'
p77
(S'JB HUNT TRANSPORT SERVICES INC'
p78
g8
S'7,299,464.04'
p79
tp80
sS'ERIE'
p81
(S'ERIE INDEMNITY CLASS A'
p82
S'Financials'
p83
S'3,271,774.10'
p84
tp85
sS'CPT'
p86
(S'CAMDEN PROPERTY TRUST REIT'
p87
g3
S'6,480,706.00'
p88
tp89
sS'AGR'
p90
(S'AVANGRID INC'
p91
S'Utilities'
p92
S'1,811,758.20'
p93
tp94
sS'WAT'
p95
(S'WATER CORP'
p96
g58
S'8,847,657.70'
p97
tp98
sS'TAP'
p99
(S'MOLSON COORS BREWING CLASS B'
p100
g40
S'4,794,190.40'
p101
tp102
sS'VSAT'
p103
(S'VIASAT INC'
p104
g22
S'1,770,946.87'
p105
tp106
sS'SPR'
p107
(S'SPIRIT AEROSYSTEMS INC CLASS A'
p108
g8
S'1,978,085.62'
p109
tp110
sS'LOPE'
p111
(S'GRAND CANYON EDUCATION INC'
p112
g45
S'3,593,827.20'
p113
tp114
sS'VRTX'
p115
(S'VERTEX PHARMACEUTICALS INC'
p116
g58
S'52,106,663.84'
p117
tp118
sS'BWA'
p119
(S'BORGWARNER INC'
p120
g45
S'5,192,352.12'
p121
tp122
sS'UAL'
p123
(S'UNITED AIRLINES HOLDINGS INC'
p124
g8
S'6,741,802.20'
p125
tp126
sS'CPA'
p127
(S'COPA HOLDINGS A SA'
p128
g8
S'1,105,816.48'
p129
tp130
sS'MANH'
p131
(S'MANHATTAN ASSOCIATES INC'
p132
g22
S'3,970,176.54'
p133
tp134
sS'TKR'
p135
(S'TIMKEN'
p136
g8
S'2,168,799.75'
p137
tp138
sS'SPB'
p139
(S'SPECTRUM BRANDS HOLDINGS INC'
p140
g40
S'1,582,763.27'
p141
tp142
sS'ADPT'
p143
(S'ADAPTIVE BIOTECHNOLOGIES CORP'
p144
g58
S'2,114,148.30'
p145
tp146
sS'WM'
p147
(S'WASTE MANAGEMENT INC'
p148
g8
S'33,405,427.20'
p149
tp150
sS'SPG'
p151
(S'SIMON PROPERTY GROUP REIT INC'
p152
g3
S'16,703,995.36'
p153
tp154
sS'FIS'
p155
(S'FIDELITY NATIONAL INFORMATION SERV'
p156
g22
S'62,294,934.93'
p157
tp158
sS'GT'
p159
(S'GOODYEAR TIRE & RUBBER'
p160
g45
S'1,388,663.12'
p161
tp162
sS'GS'
p163
(S'GOLDMAN SACHS GROUP INC'
p164
g83
S'47,059,441.56'
p165
tp166
sS'PYPL'
p167
(S'PAYPAL HOLDINGS INC'
p168
g22
S'136,844,388.96'
p169
tp170
sS'WRK'
p171
(S'WESTROCK'
p172
S'Materials'
p173
S'5,370,396.72'
p174
tp175
sS'WRI'
p176
(S'WEINGARTEN REALTY INVESTORS REIT'
p177
g3
S'1,858,497.12'
p178
tp179
sS'UMPQ'
p180
(S'UMPQUA HOLDINGS CORP'
p181
g83
S'1,969,680.40'
p182
tp183
sS'NWL'
p184
(S'NEWELL BRANDS INC'
p185
g45
S'4,178,006.40'
p186
tp187
sS'GE'
p188
(S'GENERAL ELECTRIC'
p189
g8
S'45,784,751.30'
p190
tp191
sS'GD'
p192
(S'GENERAL DYNAMICS CORP'
p193
g8
S'28,851,381.00'
p194
tp195
sS'EHC'
p196
(S'ENCOMPASS HEALTH CORP'
p197
g58
S'5,005,189.00'
p198
tp199
sS'VAR'
p200
(S'VARIAN MEDICAL SYSTEMS INC'
p201
g58
S'7,886,503.50'
p202
tp203
sS'GM'
p204
(S'GENERAL MOTORS'
p205
g45
S'24,895,080.50'
p206
tp207
sS'GL'
p208
(S'GLOBE LIFE INC'
p209
g83
S'6,016,126.00'
p210
tp211
sS'GLPI'
p212
(S'GAMING AND LEISURE PROPERTIES REIT'
p213
g3
S'5,436,566.70'
p214
tp215
sS'LHX'
p216
(S'L3HARRIS TECHNOLOGIES INC'
p217
g8
S'33,052,785.49'
p218
tp219
sS'MAS'
p220
(S'MASCO CORP'
p221
g8
S'9,476,887.38'
p222
tp223
sS'MAR'
p224
(S'MARRIOTT INTERNATIONAL INC CLASS A'
p225
g45
S'19,186,306.56'
p226
tp227
sS'MAT'
p228
(S'MATTEL INC'
p229
g45
S'2,391,532.00'
p230
tp231
sS'SNA'
p232
(S'SNAP ON INC'
p233
g8
S'5,394,665.13'
p234
tp235
sS'FOXA'
p236
(S'FOX CORP CLASS A'
p237
g27
S'7,209,343.56'
p238
tp239
sS'CR'
p240
(S'CRANE'
p241
g8
S'2,116,987.68'
p242
tp243
sS'MAA'
p244
(S'MID AMERICA APARTMENT COMMUNITIES'
p245
g3
S'9,965,121.68'
p246
tp247
sS'OTIS'
p248
(S'OTIS WORLDWIDE CORP'
p249
g8
S'17,299,968.75'
p250
tp251
sS'MAC'
p252
(S'MACERICH REIT'
p253
g3
S'1,073,735.20'
p254
tp255
sS'WLK'
p256
(S'WESTLAKE CHEMICAL CORP'
p257
g173
S'1,255,945.13'
p258
tp259
sS'PSTG'
p260
(S'PURE STORAGE INC CLASS A'
p261
g22
S'2,832,592.32'
p262
tp263
sS'LAZ'
p264
(S'LAZARD LTD CLASS A'
p265
g83
S'2,060,117.45'
p266
tp267
sS'OKTA'
p268
(S'OKTA INC CLASS A'
p269
g22
S'14,326,592.65'
p270
tp271
sS'JNJ'
p272
(S'JOHNSON & JOHNSON'
p273
g58
S'284,820,263.42'
p274
tp275
sS'ODFL'
p276
(S'OLD DOMINION FREIGHT LINE INC'
p277
g8
S'11,618,416.25'
p278
tp279
sS'XYL'
p280
(S'XYLEM INC'
p281
g8
S'8,603,366.20'
p282
tp283
sS'SNX'
p284
(S'SYNNEX CORP'
p285
g22
S'3,025,094.82'
p286
tp287
sS'MAN'
p288
(S'MANPOWER INC'
p289
g8
S'2,905,233.37'
p290
tp291
sS'TSN'
p292
(S'TYSON FOODS INC CLASS A'
p293
g40
S'13,015,699.20'
p294
tp295
sS'LYFT'
p296
(S'LYFT INC CLASS A'
p297
g8
S'5,316,860.88'
p298
tp299
sS'BEN'
p300
(S'FRANKLIN RESOURCES INC'
p301
g83
S'4,379,917.80'
p302
tp303
sS'CMI'
p304
(S'CUMMINS INC'
p305
g8
S'18,448,270.19'
p306
tp307
sS'CSL'
p308
(S'CARLISLE COMPANIES INC'
p309
g8
S'5,087,853.45'
p310
tp311
sS'CMG'
p312
(S'CHIPOTLE MEXICAN GRILL INC'
p313
g45
S'19,384,333.80'
p314
tp315
sS'ALB'
p316
(S'ALBEMARLE CORP'
p317
g173
S'5,912,193.24'
p318
tp319
sS'CME'
p320
(S'CME GROUP INC CLASS A'
p321
g83
S'46,922,698.56'
p322
tp323
sS'CMD'
p324
(S'CANTEL MEDICAL CORP'
p325
g58
S'1,208,863.98'
p326
tp327
sS'DTE'
p328
(S'DTE ENERGY'
p329
g92
S'14,883,750.00'
p330
tp331
sS'JWA'
p332
(S'JOHN WILEY AND SONS INC CLASS A'
p333
g27
S'1,141,993.19'
p334
tp335
sS'ICUI'
p336
(S'ICU MEDICAL INC'
p337
g58
S'2,612,292.57'
p338
tp339
sS'NKE'
p340
(S'NIKE INC CLASS B'
p341
g45
S'84,689,498.92'
p342
tp343
sS'CMS'
p344
(S'CMS ENERGY CORP'
p345
g92
S'12,581,279.88'
p346
tp347
sS'PCG'
p348
(S'PG&E CORP'
p349
g92
S'4,395,765.00'
p350
tp351
sS'PGRE'
p352
(S'PARAMOUNT GROUP REIT INC'
p353
g3
S'1,086,797.25'
p354
tp355
sS'VLO'
p356
(S'VALERO ENERGY CORP'
p357
g13
S'18,963,774.28'
p358
tp359
sS'HUM'
p360
(S'HUMANA INC'
p361
g58
S'37,591,944.98'
p362
tp363
sS'HUN'
p364
(S'HUNTSMAN CORP'
p365
g173
S'2,817,925.92'
p366
tp367
sS'LSI'
p368
(S'LIFE STORAGE INC'
p369
g3
S'3,318,747.90'
p370
tp371
sS'PLD'
p372
(S'PROLOGIS REIT INC'
p373
g3
S'50,667,415.76'
p374
tp375
sS'SBGI'
p376
(S'SINCLAIR BROADCAST GROUP INC CLASS'
p377
g27
S'993,688.72'
p378
tp379
sS'TTC'
p380
(S'TORO'
p381
g8
S'5,427,294.88'
p382
tp383
sS'FSLR'
p384
(S'FIRST SOLAR INC'
p385
g22
S'3,142,731.04'
p386
tp387
sS'INGR'
p388
(S'INGREDION INC'
p389
g40
S'4,059,836.81'
p390
tp391
sS'TTD'
p392
(S'TRADE DESK INC CLASS A'
p393
g22
S'10,270,502.08'
p394
tp395
sS'NFG'
p396
(S'NATIONAL FUEL GAS'
p397
g92
S'2,508,143.10'
p398
tp399
sS'GRMN'
p400
(S'GARMIN LTD'
p401
g45
S'10,115,257.32'
p402
tp403
sS'AFG'
p404
(S'AMERICAN FINANCIAL GROUP INC'
p405
g83
S'3,269,101.71'
p406
tp407
sS'CPRI'
p408
(S'CAPRI HOLDINGS LTD'
p409
g45
S'1,841,539.95'
p410
tp411
sS'FTV'
p412
(S'FORTIVE CORP'
p413
g8
S'14,202,654.45'
p414
tp415
sS'SNPS'
p416
(S'SYNOPSYS INC'
p417
g22
S'20,402,986.56'
p418
tp419
sS'K'
p420
(S'KELLOGG'
p421
g40
S'12,007,317.07'
p422
tp423
sS'ZG'
p424
(S'ZILLOW GROUP INC CLASS A'
p425
g27
S'2,390,436.72'
p426
tp427
sS'FFIV'
p428
(S'F5 NETWORKS INC'
p429
g22
S'6,306,483.62'
p430
tp431
sS'BLL'
p432
(S'BALL CORP'
p433
g173
S'16,509,338.36'
p434
tp435
sS'HCA'
p436
(S'HCA HEALTHCARE INC'
p437
g58
S'20,797,214.79'
p438
tp439
sS'FIVE'
p440
(S'FIVE BELOW INC'
p441
g45
S'4,541,152.00'
p442
tp443
sS'BLK'
p444
(S'BLACKROCK INC'
p445
g83
S'58,763,646.06'
p446
tp447
sS'GRA'
p448
(S'WR GRACE'
p449
g173
S'2,307,361.60'
p450
tp451
sS'CPRT'
p452
(S'COPART INC'
p453
g8
S'12,820,707.00'
p454
tp455
sS'ZS'
p456
(S'ZSCALER INC'
p457
g22
S'5,461,343.84'
p458
tp459
sS'WTRG'
p460
(S'ESSENTIAL UTILITIES INC'
p461
g92
S'7,038,719.94'
p462
tp463
sS'MD'
p464
(S'MEDNAX INC'
p465
g58
S'1,082,312.16'
p466
tp467
sS'UFS'
p468
(S'DOMTAR CORP'
p469
g173
S'871,340.61'
p470
tp471
sS'MA'
p472
(S'MASTERCARD INC CLASS A'
p473
g22
S'196,533,170.00'
p474
tp475
sS'PRGO'
p476
(S'PERRIGO PLC'
p477
g58
S'4,866,617.08'
p478
tp479
sS'MO'
p480
(S'ALTRIA GROUP INC'
p481
g40
S'55,944,009.46'
p482
tp483
sS'HLT'
p484
(S'HILTON WORLDWIDE HOLDINGS INC'
p485
g45
S'16,053,060.64'
p486
tp487
sS'NOC'
p488
(S'NORTHROP GRUMMAN CORP'
p489
g8
S'38,181,760.50'
p490
tp491
sS'MU'
p492
(S'MICRON TECHNOLOGY INC'
p493
g22
S'40,850,637.68'
p494
tp495
sS'OKE'
p496
(S'ONEOK INC'
p497
g13
S'11,008,439.37'
p498
tp499
sS'UHS'
p500
(S'UNIVERSAL HEALTH SERVICES INC CLAS'
p501
g58
S'5,595,019.30'
p502
tp503
sS'MS'
p504
(S'MORGAN STANLEY'
p505
g83
S'39,496,062.06'
p506
tp507
sS'TJX'
p508
(S'TJX INC'
p509
g45
S'48,651,678.78'
p510
tp511
sS'NOV'
p512
(S'NATIONAL OILWELL VARCO INC'
p513
g13
S'3,783,109.00'
p514
tp515
sS'NOW'
p516
(S'SERVICENOW INC'
p517
g22
S'53,156,961.65'
p518
tp519
sS'NUAN'
p520
(S'NUANCE COMMUNICATIONS INC'
p521
g22
S'5,122,540.50'
p522
tp523
sS'OLLI'
p524
(S'OLLIES BARGAIN OUTLET HOLDINGS INC'
p525
g45
S'3,513,725.02'
p526
tp527
sS'SCCO'
p528
(S'SOUTHERN COPPER CORP'
p529
g173
S'2,360,420.80'
p530
tp531
sS'AMGN'
p532
(S'AMGEN INC'
p533
g58
S'98,242,320.00'
p534
tp535
sS'BWXT'
p536
(S'BWX TECHNOLOGIES INC'
p537
g8
S'4,370,971.93'
p538
tp539
sS'FB'
p540
(S'FACEBOOK CLASS A INC'
p541
g27
S'408,223,582.05'
p542
tp543
sS'COST'
p544
(S'COSTCO WHOLESALE CORP'
p545
g40
S'100,600,560.30'
p546
tp547
sS'FE'
p548
(S'FIRSTENERGY CORP'
p549
g92
S'16,689,199.50'
p550
tp551
sS'CTL'
p552
(S'CENTURYLINK INC'
p553
g27
S'8,090,589.00'
p554
tp555
sS'REZI'
p556
(S'RESIDEO TECHNOLOGIES INC'
p557
g8
S'654,313.50'
p558
tp559
sS'DOV'
p560
(S'DOVER CORP'
p561
g8
S'10,603,837.40'
p562
tp563
sS'DOW'
p564
(S'DOW INC'
p565
g173
S'22,435,990.72'
p566
tp567
sS'MSFT'
p568
(S'MICROSOFT CORP'
p569
g22
S'1,072,334,596.41'
p570
tp571
sS'GLW'
p572
(S'CORNING INC'
p573
g22
S'15,096,055.05'
p574
tp575
sS'SCHW'
p576
(S'CHARLES SCHWAB CORP'
p577
g83
S'31,659,743.36'
p578
tp579
sS'BSX'
p580
(S'BOSTON SCIENTIFIC CORP'
p581
g58
S'37,043,293.50'
p582
tp583
sS'JHG'
p584
(S'JANUS HENDERSON GROUP PLC'
p585
g83
S'2,798,796.36'
p586
tp587
sS'FCX'
p588
(S'FREEPORT MCMORAN INC'
p589
g173
S'10,916,152.39'
p590
tp591
sS'AIZ'
p592
(S'ASSURANT INC'
p593
g83
S'4,887,290.30'
p594
tp595
sS'BDX'
p596
(S'BECTON DICKINSON'
p597
g58
S'47,973,207.33'
p598
tp599
sS'STWD'
p600
(S'STARWOOD PROPERTY TRUST REIT INC'
p601
g83
S'3,008,374.26'
p602
tp603
sS'GGG'
p604
(S'GRACO INC'
p605
g8
S'6,113,355.18'
p606
tp607
sS'WHR'
p608
(S'WHIRLPOOL CORP'
p609
g45
S'5,772,237.44'
p610
tp611
sS'EIX'
p612
(S'EDISON INTERNATIONAL'
p613
g92
S'15,187,244.54'
p614
tp615
sS'NLOK'
p616
(S'NORTONLIFELOCK INC'
p617
g22
S'8,552,099.34'
p618
tp619
sS'HLF'
p620
(S'HERBALIFE NUTRITION LTD'
p621
g40
S'3,166,027.20'
p622
tp623
sS'FICO'
p624
(S'FAIR ISAAC CORP'
p625
g22
S'8,761,661.79'
p626
tp627
sS'MDT'
p628
(S'MEDTRONIC PLC'
p629
g58
S'92,814,072.78'
p630
tp631
sS'MDU'
p632
(S'MDU RESOURCES GROUP INC'
p633
g92
S'3,154,882.56'
p634
tp635
sS'AIV'
p636
(S'APARTMENT INVESTMENT AND MANAGEMEN'
p637
g3
S'4,327,362.00'
p638
tp639
sS'VER'
p640
(S'VEREIT INC'
p641
g3
S'4,979,131.10'
p642
tp643
sS'AWI'
p644
(S'ARMSTRONG WORLD INDUSTRIES INC'
p645
g8
S'2,814,210.46'
p646
tp647
sS'F'
p648
(S'FORD MOTOR CO'
p649
g45
S'18,110,478.13'
p650
tp651
sS'PPD'
p652
(S'PPD INC'
p653
g58
S'1,294,996.56'
p654
tp655
sS'BFAM'
p656
(S'BRIGHT HORIZONS FAMILY SOLUTIONS I'
p657
g45
S'5,294,432.85'
p658
tp659
sS'SITC'
p660
(S'SITE CENTERS CORP'
p661
g3
S'885,659.08'
p662
tp663
sS'DFS'
p664
(S'DISCOVER FINANCIAL SERVICES'
p665
g83
S'11,656,411.92'
p666
tp667
sS'UAA'
p668
(S'UNDER ARMOUR INC CLASS A'
p669
g45
S'1,330,298.25'
p670
tp671
sS'ILMN'
p672
(S'ILLUMINA INC'
p673
g58
S'37,640,365.48'
p674
tp675
sS'JEF'
p676
(S'JEFFERIES FINANCIAL GROUP INC'
p677
g83
S'2,824,092.36'
p678
tp679
sS'V'
p680
(S'VISA INC CLASS A'
p681
g22
S'246,310,286.16'
p682
tp683
sS'GO'
p684
(S'GROCERY OUTLET HOLDING CORP'
p685
g40
S'1,704,324.52'
p686
tp687
sS'JLL'
p688
(S'JONES LANG LASALLE INC'
p689
g3
S'4,182,153.90'
p690
tp691
sS'FMC'
p692
(S'FMC CORP'
p693
g173
S'9,359,380.26'
p694
tp695
sS'AVY'
p696
(S'AVERY DENNISON CORP'
p697
g173
S'7,156,318.90'
p698
tp699
sS'IART'
p700
(S'INTEGRA LIFESCIENCES HOLDINGS CORP'
p701
g58
S'2,587,222.00'
p702
tp703
sS'TSCO'
p704
(S'TRACTOR SUPPLY'
p705
g45
S'10,710,303.24'
p706
tp707
sS'ALL'
p708
(S'ALLSTATE CORP'
p709
g83
S'23,027,619.07'
p710
tp711
sS'NTAP'
p712
(S'NETAPP INC'
p713
g22
S'7,153,546.62'
p714
tp715
sS'ZBRA'
p716
(S'ZEBRA TECHNOLOGIES CORP CLASS A'
p717
g22
S'10,259,791.52'
p718
tp719
sS'SQ'
p720
(S'SQUARE INC CLASS A'
p721
g22
S'22,537,759.37'
p722
tp723
sS'LMT'
p724
(S'LOCKHEED MARTIN CORP'
p725
g8
S'72,239,306.16'
p726
tp727
sS'ST'
p728
(S'SENSATA TECHNOLOGIES HOLDING PLC'
p729
g8
S'4,371,251.97'
p730
tp731
sS'MMM'
p732
(S'3M'
p733
g8
S'64,878,680.22'
p734
tp735
sS'SO'
p736
(S'SOUTHERN'
p737
g92
S'44,404,377.67'
p738
tp739
sS'JNPR'
p740
(S'JUNIPER NETWORKS INC'
p741
g22
S'5,924,438.30'
p742
tp743
sS'ORI'
p744
(S'OLD REPUBLIC INTERNATIONAL CORP'
p745
g83
S'3,509,086.84'
p746
tp747
sS'SC'
p748
(S'SANTANDER CONSUMER USA HOLDINGS IN'
p749
g83
S'1,398,007.80'
p750
tp751
sS'RPAI'
p752
(S'RETAIL PROPERTIES OF AMERICA REIT'
p753
g3
S'1,076,383.44'
p754
tp755
sS'VOYA'
p756
(S'VOYA FINANCIAL INC'
p757
g83
S'4,674,579.25'
p758
tp759
sS'MMC'
p760
(S'MARSH & MCLENNAN INC'
p761
g83
S'40,212,976.30'
p762
tp763
sS'LOW'
p764
(S'LOWES COMPANIES INC'
p765
g45
S'72,859,492.34'
p766
tp767
sS'WEC'
p768
(S'WEC ENERGY GROUP INC'
p769
g92
S'21,945,777.03'
p770
tp771
sS'SWKS'
p772
(S'SKYWORKS SOLUTIONS INC'
p773
g22
S'15,997,944.32'
p774
tp775
sS'ADBE'
p776
(S'ADOBE INC'
p777
g22
S'141,958,551.28'
p778
tp779
sS'IBM'
p780
(S'INTERNATIONAL BUSINESS MACHINES CO'
p781
g22
S'79,660,998.36'
p782
tp783
sS'CTLT'
p784
(S'CATALENT INC'
p785
g58
S'7,937,244.35'
p786
tp787
sS'PEN'
p788
(S'PENUMBRA INC'
p789
g58
S'3,950,049.60'
p790
tp791
sS'DPZ'
p792
(S'DOMINOS PIZZA INC'
p793
g45
S'11,928,884.77'
p794
tp795
sS'BAX'
p796
(S'BAXTER INTERNATIONAL INC'
p797
g58
S'30,716,905.63'
p798
tp799
sS'CAT'
p800
(S'CATERPILLAR INC'
p801
g8
S'49,576,355.40'
p802
tp803
sS'COHR'
p804
(S'COHERENT INC'
p805
g22
S'2,509,626.90'
p806
tp807
sS'CAH'
p808
(S'CARDINAL HEALTH INC'
p809
g58
S'11,681,806.97'
p810
tp811
sS'BAC'
p812
(S'BANK OF AMERICA CORP'
p813
g83
S'145,592,321.56'
p814
tp815
sS'TOL'
p816
(S'TOLL BROTHERS INC'
p817
g45
S'2,886,245.50'
p818
tp819
sS'EEFT'
p820
(S'EURONET WORLDWIDE INC'
p821
g22
S'3,874,948.74'
p822
tp823
sS'GIS'
p824
(S'GENERAL MILLS INC'
p825
g40
S'27,909,751.22'
p826
tp827
sS'R'
p828
(S'RYDER SYSTEM INC'
p829
g8
S'1,299,699.18'
p830
tp831
sS'CAG'
p832
(S'CONAGRA BRANDS INC'
p833
g40
S'11,573,124.92'
p834
tp835
sS'KOS'
p836
(S'KOSMOS ENERGY LTD'
p837
g13
S'524,015.34'
p838
tp839
sS'BAH'
p840
(S'BOOZ ALLEN HAMILTON HOLDING CORP C'
p841
g22
S'7,927,369.24'
p842
tp843
sS'LB'
p844
(S'L BRANDS INC'
p845
g45
S'2,649,804.48'
p846
tp847
sS'AGCO'
p848
(S'AGCO CORP'
p849
g8
S'2,680,838.04'
p850
tp851
sS'MPW'
p852
(S'MEDICAL PROPERTIES TRUST REIT INC'
p853
g3
S'7,193,066.40'
p854
tp855
sS'INCY'
p856
(S'INCYTE CORP'
p857
g58
S'12,320,101.89'
p858
tp859
sS'LM'
p860
(S'LEGG MASON INC'
p861
g83
S'3,206,352.00'
p862
tp863
sS'LH'
p864
(S'LABORATORY CORPORATION OF AMERICA'
p865
g58
S'12,038,097.75'
p866
tp867
sS'LW'
p868
(S'LAMB WESTON HOLDINGS INC'
p869
g40
S'7,077,402.28'
p870
tp871
sS'PGR'
p872
(S'PROGRESSIVE CORP'
p873
g83
S'33,715,312.80'
p874
tp875
sS'HIG'
p876
(S'HARTFORD FINANCIAL SERVICES GROUP'
p877
g83
S'10,605,429.72'
p878
tp879
sS'DEI'
p880
(S'DOUGLAS EMMETT REIT INC'
p881
g3
S'3,748,429.06'
p882
tp883
sS'HII'
p884
(S'HUNTINGTON INGALLS INDUSTRIES INC'
p885
g8
S'5,501,020.80'
p886
tp887
sS'WLTW'
p888
(S'WILLIS TOWERS WATSON PLC'
p889
g83
S'18,126,228.00'
p890
tp891
sS'A'
p892
(S'AGILENT TECHNOLOGIES INC'
p893
g58
S'20,077,368.63'
p894
tp895
sS'STE'
p896
(S'STERIS'
p897
g58
S'9,519,339.51'
p898
tp899
sS'SLGN'
p900
(S'SILGAN HOLDINGS INC'
p901
g173
S'1,844,022.91'
p902
tp903
sS'ABC'
p904
(S'AMERISOURCEBERGEN CORP'
p905
g58
S'10,502,295.12'
p906
tp907
sS'FTNT'
p908
(S'FORTINET INC'
p909
g22
S'14,388,736.17'
p910
tp911
sS'KEYS'
p912
(S'KEYSIGHT TECHNOLOGIES INC'
p913
g22
S'13,960,968.22'
p914
tp915
sS'THS'
p916
(S'TREEHOUSE FOODS INC'
p917
g40
S'2,019,764.16'
p918
tp919
sS'LGFB'
p920
(S'LIONS GATE ENTERTAINMENT NON VOTIN'
p921
g27
S'526,108.07'
p922
tp923
sS'ZNGA'
p924
(S'ZYNGA INC CLASS A'
p925
g27
S'5,910,699.06'
p926
tp927
sS'SRC'
p928
(S'SPIRIT REALTY CAPITAL REIT INC'
p929
g3
S'2,366,641.20'
p930
tp931
sS'DOCU'
p932
(S'DOCUSIGN INC'
p933
g22
S'17,909,245.30'
p934
tp935
sS'STT'
p936
(S'STATE STREET CORP'
p937
g83
S'16,500,882.03'
p938
tp939
sS'WCC'
p940
(S'WESCO INTERNATIONAL INC'
p941
g8
S'1,193,638.88'
p942
tp943
sS'ABT'
p944
(S'ABBOTT LABORATORIES'
p945
g58
S'115,047,189.18'
p946
tp947
sS'CACC'
p948
(S'CREDIT ACCEPTANCE CORP'
p949
g83
S'3,231,513.60'
p950
tp951
sS'QRTEA'
p952
(S'QURATE RETAIL INC SERIES A'
p953
g45
S'2,493,293.30'
p954
tp955
sS'XOM'
p956
(S'EXXON MOBIL CORP'
p957
g13
S'148,786,741.66'
p958
tp959
sS'CACI'
p960
(S'CACI INTERNATIONAL INC CLASS A'
p961
g22
S'4,395,878.54'
p962
tp963
sS'STZ'
p964
(S'CONSTELLATION BRANDS INC CLASS A'
p965
g40
S'20,340,252.64'
p966
tp967
sS'UDR'
p968
(S'UDR REIT INC'
p969
g3
S'8,262,059.40'
p970
tp971
sS'ACHC'
p972
(S'ACADIA HEALTHCARE COMPANY INC'
p973
g58
S'1,823,760.41'
p974
tp975
sS'ALKS'
p976
(S'ALKERMES'
p977
g58
S'1,825,687.90'
p978
tp979
sS'CERN'
p980
(S'CERNER CORP'
p981
g58
S'16,075,169.60'
p982
tp983
sS'CFG'
p984
(S'CITIZENS FINANCIAL GROUP INC'
p985
g83
S'8,016,343.20'
p986
tp987
sS'NCR'
p988
(S'NCR CORP'
p989
g22
S'1,710,803.16'
p990
tp991
sS'RSG'
p992
(S'REPUBLIC SERVICES INC'
p993
g8
S'13,210,056.54'
p994
tp995
sS'HAIN'
p996
(S'HAIN CELESTIAL GROUP INC'
p997
g40
S'1,926,038.40'
p998
tp999
sS'TFC'
p1000
(S'TRUIST FINANCIAL CORP'
p1001
g83
S'38,210,222.84'
p1002
tp1003
sS'BHF'
p1004
(S'BRIGHTHOUSE FINANCIAL INC'
p1005
g83
S'2,307,244.50'
p1006
tp1007
sS'TRGP'
p1008
(S'TARGA RESOURCES CORP'
p1009
g13
S'3,426,577.56'
p1010
tp1011
sS'TFX'
p1012
(S'TELEFLEX INC'
p1013
g58
S'12,323,959.74'
p1014
tp1015
sS'CFX'
p1016
(S'COLFAX CORP'
p1017
g8
S'1,994,531.75'
p1018
tp1019
sS'BKNG'
p1020
(S'BOOKING HOLDINGS INC'
p1021
g45
S'50,476,810.23'
p1022
tp1023
sS'BGCP'
p1024
(S'BGC PARTNERS INC CLASS A'
p1025
g83
S'564,262.09'
p1026
tp1027
sS'PNC'
p1028
(S'PNC FINANCIAL SERVICES GROUP INC'
p1029
g83
S'35,212,535.28'
p1030
tp1031
sS'CFR'
p1032
(S'CULLEN FROST BANKERS INC'
p1033
g83
S'3,229,667.73'
p1034
tp1035
sS'BXP'
p1036
(S'BOSTON PROPERTIES REIT INC'
p1037
g3
S'10,796,827.31'
p1038
tp1039
sS'GOOGL'
p1040
(S'ALPHABET INC CLASS A'
p1041
g27
S'319,470,579.60'
p1042
tp1043
sS'GRUB'
p1044
(S'GRUBHUB INC'
p1045
g45
S'4,428,427.51'
p1046
tp1047
sS'LIN'
p1048
(S'LINDE PLC'
p1049
g173
S'81,385,216.95'
p1050
tp1051
sS'CBOE'
p1052
(S'CBOE GLOBAL MARKETS INC'
p1053
g83
S'8,171,765.00'
p1054
tp1055
sS'VFC'
p1056
(S'VF CORP'
p1057
g45
S'13,891,480.20'
p1058
tp1059
sS'LII'
p1060
(S'LENNOX INTERNATIONAL INC'
p1061
g8
S'5,885,392.11'
p1062
tp1063
sS'FNF'
p1064
(S'FIDELITY NATIONAL FINANCIAL INC'
p1065
g83
S'6,758,864.35'
p1066
tp1067
sS'FND'
p1068
(S'FLOOR DECOR HOLDINGS INC CLASS A'
p1069
g45
S'2,791,664.64'
p1070
tp1071
sS'FNB'
p1072
(S'FNB CORP'
p1073
g83
S'1,740,253.32'
p1074
tp1075
sS'GHC'
p1076
(S'GRAHAM HOLDINGS COMPANY CLASS B'
p1077
g45
S'1,085,623.20'
p1078
tp1079
sS'SON'
p1080
(S'SONOCO PRODUCTS'
p1081
g173
S'3,712,480.52'
p1082
tp1083
sS'AMZN'
p1084
(S'AMAZON COM INC'
p1085
g45
S'814,167,972.48'
p1086
tp1087
sS'GTES'
p1088
(S'GATES INDUSTRIAL PLC'
p1089
g8
S'338,540.96'
p1090
tp1091
sS'WEX'
p1092
(S'WEX INC'
p1093
g22
S'5,081,490.60'
p1094
tp1095
sS'RP'
p1096
(S'REALPAGE INC'
p1097
g22
S'4,048,575.71'
p1098
tp1099
sS'RS'
p1100
(S'RELIANCE STEEL & ALUMINUM'
p1101
g173
S'4,614,390.94'
p1102
tp1103
sS'AON'
p1104
(S'AON PLC CLASS A'
p1105
g83
S'31,580,149.10'
p1106
tp1107
sS'PRI'
p1108
(S'PRIMERICA INC'
p1109
g83
S'3,541,390.71'
p1110
tp1111
sS'PRU'
p1112
(S'PRUDENTIAL FINANCIAL INC'
p1113
g83
S'18,231,312.55'
p1114
tp1115
sS'RE'
p1116
(S'EVEREST RE GROUP LTD'
p1117
g83
S'6,449,426.00'
p1118
tp1119
sS'RF'
p1120
(S'REGIONS FINANCIAL CORP'
p1121
g83
S'8,288,313.00'
p1122
tp1123
sS'AOS'
p1124
(S'A O SMITH CORP'
p1125
g8
S'4,769,178.84'
p1126
tp1127
sS'RL'
p1128
(S'RALPH LAUREN CORP CLASS A'
p1129
g45
S'2,692,249.01'
p1130
tp1131
sS'GH'
p1132
(S'GUARDANT HEALTH INC'
p1133
g58
S'2,699,402.16'
p1134
tp1135
sS'WTM'
p1136
(S'WHITE MOUNTAINS INSURANCE GROUP LT'
p1137
g83
S'2,019,820.32'
p1138
tp1139
sS'BFB'
p1140
(S'BROWN FORMAN CORP CLASS B'
p1141
g40
S'8,647,523.20'
p1142
tp1143
sS'BFA'
p1144
(S'BROWN FORMAN CORP CLASS A'
p1145
g40
S'1,982,577.00'
p1146
tp1147
sS'CHD'
p1148
(S'CHURCH AND DWIGHT INC'
p1149
g40
S'13,974,141.08'
p1150
tp1151
sS'CHE'
p1152
(S'CHEMED CORP'
p1153
g58
S'5,054,664.57'
p1154
tp1155
sS'EVRG'
p1156
(S'EVERGY INC'
p1157
g92
S'10,558,978.00'
p1158
tp1159
sS'VIRT'
p1160
(S'VIRTU FINANCIAL INC CLASS A'
p1161
g83
S'897,892.64'
p1162
tp1163
sS'CHK'
p1164
(S'CHESAPEAKE ENERGY CORP'
p1165
g13
S'86,594.76'
p1166
tp1167
sS'URI'
p1168
(S'UNITED RENTALS INC'
p1169
g8
S'7,947,555.45'
p1170
tp1171
sS'HRL'
p1172
(S'HORMEL FOODS CORP'
p1173
g40
S'9,812,605.28'
p1174
tp1175
sS'MRO'
p1176
(S'MARATHON OIL CORP'
p1177
g13
S'3,712,374.06'
p1178
tp1179
sS'AYX'
p1180
(S'ALTERYX INC CLASS A'
p1181
g22
S'4,700,334.80'
p1182
tp1183
sS'MRK'
p1184
(S'MERCK & CO INC'
p1185
g58
S'149,953,262.55'
p1186
tp1187
sS'CHX'
p1188
(S'CHAMPIONX CORP'
p1189
g13
S'1,418,491.06'
p1190
tp1191
sS'BPYU'
p1192
(S'BROOKFIELD PROPERTY REIT INC CLASS'
p1193
g3
S'487,071.42'
p1194
tp1195
sS'HRC'
p1196
(S'HILL ROM HOLDINGS INC'
p1197
g58
S'4,845,487.50'
p1198
tp1199
sS'HRB'
p1200
(S'H&R BLOCK INC'
p1201
g45
S'2,529,818.91'
p1202
tp1203
sS'TYL'
p1204
(S'TYLER TECHNOLOGIES INC'
p1205
g22
S'10,151,611.20'
p1206
tp1207
sS'BRKB'
p1208
(S'BERKSHIRE HATHAWAY INC CLASS B'
p1209
g83
S'265,046,501.16'
p1210
tp1211
sS'IPG'
p1212
(S'INTERPUBLIC GROUP OF COMPANIES INC'
p1213
g27
S'5,068,901.32'
p1214
tp1215
sS'NLSN'
p1216
(S'NIELSEN HOLDINGS PLC'
p1217
g8
S'3,988,754.79'
p1218
tp1219
sS'AMCX'
p1220
(S'AMC NETWORKS CLASS A INC'
p1221
g27
S'939,819.42'
p1222
tp1223
sS'RHI'
p1224
(S'ROBERT HALF'
p1225
g8
S'4,408,033.06'
p1226
tp1227
sS'DBX'
p1228
(S'DROPBOX INC CLASS A'
p1229
g22
S'3,234,732.20'
p1230
tp1231
sS'APH'
p1232
(S'AMPHENOL CORP CLASS A'
p1233
g22
S'21,039,910.71'
p1234
tp1235
sS'BRKR'
p1236
(S'BRUKER CORP'
p1237
g58
S'3,124,459.40'
p1238
tp1239
sS'ROST'
p1240
(S'ROSS STORES INC'
p1241
g45
S'25,447,436.72'
p1242
tp1243
sS'APA'
p1244
(S'APACHE CORP'
p1245
g13
S'3,622,882.61'
p1246
tp1247
sS'LSXMA'
p1248
(S'LIBERTY MEDIA LIBERTY SIRIUSXM COR'
p1249
g27
S'2,116,872.45'
p1250
tp1251
sS'APD'
p1252
(S'AIR PRODUCTS AND CHEMICALS INC'
p1253
g173
S'39,034,606.84'
p1254
tp1255
sS'KSU'
p1256
(S'KANSAS CITY SOUTHERN'
p1257
g8
S'10,506,078.04'
p1258
tp1259
sS'IVZ'
p1260
(S'INVESCO LTD'
p1261
g83
S'2,819,704.98'
p1262
tp1263
sS'UBFUT'
p1264
(S'CASH COLLATERAL USD UBFUT'
p1265
S'Cash and/or Derivatives'
p1266
S'4,233,000.00'
p1267
tp1268
sS'HDS'
p1269
(S'HD SUPPLY HOLDINGS INC'
p1270
g8
S'4,113,741.72'
p1271
tp1272
sS'KSS'
p1273
(S'KOHLS CORP'
p1274
g45
S'2,500,622.46'
p1275
tp1276
sS'NYCB'
p1277
(S'NEW YORK COMMUNITY BANCORP INC'
p1278
g83
S'3,548,538.26'
p1279
tp1280
sS'WFC'
p1281
(S'WELLS FARGO'
p1282
g83
S'75,959,160.45'
p1283
tp1284
sS'HZNP'
p1285
(S'HORIZON THERAPEUTICS PUBLIC PLC'
p1286
g58
S'6,595,848.00'
p1287
tp1288
sS'STAY'
p1289
(S'EXTENDED STAY AMERICA UNITS INC'
p1290
g45
S'1,584,021.67'
p1291
tp1292
sS'IFF'
p1293
(S'INTERNATIONAL FLAVORS & FRAGRANCES'
p1294
g173
S'10,282,052.50'
p1295
tp1296
sS'CHTR'
p1297
(S'CHARTER COMMUNICATIONS INC CLASS A'
p1298
g27
S'59,036,507.01'
p1299
tp1300
sS'NVDA'
p1301
(S'NVIDIA CORP'
p1302
g22
S'156,244,622.10'
p1303
tp1304
sS'ZION'
p1305
(S'ZIONS BANCORPORATION'
p1306
g83
S'4,047,336.02'
p1307
tp1308
sS'COLD'
p1309
(S'AMERICOLD REALTY TRUST'
p1310
g3
S'4,900,794.00'
p1311
tp1312
sS'XRAY'
p1313
(S'DENTSPLY SIRONA INC'
p1314
g58
S'7,392,156.28'
p1315
tp1316
sS'UGI'
p1317
(S'UGI CORP'
p1318
g92
S'5,081,474.55'
p1319
tp1320
sS'AVGO'
p1321
(S'BROADCOM INC'
p1322
g22
S'86,350,750.00'
p1323
tp1324
sS'PTEN'
p1325
(S'PATTERSON UTI ENERGY INC'
p1326
g13
S'687,514.88'
p1327
tp1328
sS'NLY'
p1329
(S'ANNALY CAPITAL MANAGEMENT REIT INC'
p1330
g83
S'7,162,345.76'
p1331
tp1332
sS'SEIC'
p1333
(S'SEI INVESTMENTS'
p1334
g83
S'5,436,482.87'
p1335
tp1336
sS'STL'
p1337
(S'STERLING BANCORP'
p1338
g83
S'1,639,675.92'
p1339
tp1340
sS'ALNY'
p1341
(S'ALNYLAM PHARMACEUTICALS INC'
p1342
g58
S'10,205,509.14'
p1343
tp1344
sS'PKG'
p1345
(S'PACKAGING CORP OF AMERICA'
p1346
g173
S'6,984,206.49'
p1347
tp1348
sS'CNA'
p1349
(S'CNA FINANCIAL CORP'
p1350
g83
S'599,981.20'
p1351
tp1352
sS'BMY'
p1353
(S'BRISTOL MYERS SQUIBB'
p1354
g58
S'100,925,142.41'
p1355
tp1356
sS'RTX'
p1357
(S'RAYTHEON TECHNOLOGIES CORP'
p1358
g8
S'70,023,636.15'
p1359
tp1360
sS'PLNT'
p1361
(S'PLANET FITNESS INC CLASS A'
p1362
g45
S'4,182,203.80'
p1363
tp1364
sS'AFL'
p1365
(S'AFLAC INC'
p1366
g83
S'19,767,122.52'
p1367
tp1368
sS'EL'
p1369
(S'ESTEE LAUDER INC CLASS A'
p1370
g40
S'31,425,174.00'
p1371
tp1372
sS'PAYX'
p1373
(S'PAYCHEX INC'
p1374
g22
S'17,695,715.12'
p1375
tp1376
sS'HPP'
p1377
(S'HUDSON PACIFIC PROPERTIES REIT INC'
p1378
g3
S'2,876,183.69'
p1379
tp1380
sS'OXY'
p1381
(S'OCCIDENTAL PETROLEUM CORP'
p1382
g13
S'11,778,073.92'
p1383
tp1384
sS'G'
p1385
(S'GENPACT LTD'
p1386
g22
S'4,756,455.77'
p1387
tp1388
sS'SHW'
p1389
(S'SHERWIN WILLIAMS'
p1390
g173
S'34,480,986.80'
p1391
tp1392
sS'ED'
p1393
(S'CONSOLIDATED EDISON INC'
p1394
g92
S'18,945,645.75'
p1395
tp1396
sS'DISCK'
p1397
(S'DISCOVERY INC SERIES C'
p1398
g27
S'5,084,556.45'
p1399
tp1400
sS'EA'
p1401
(S'ELECTRONIC ARTS INC'
p1402
g27
S'26,592,439.66'
p1403
tp1404
sS'ORLY'
p1405
(S'OREILLY AUTOMOTIVE INC'
p1406
g45
S'23,189,035.36'
p1407
tp1408
sS'UTHR'
p1409
(S'UNITED THERAPEUTICS CORP'
p1410
g58
S'3,758,816.00'
p1411
tp1412
sS'DLR'
p1413
(S'DIGITAL REALTY TRUST REIT INC'
p1414
g3
S'26,607,739.17'
p1415
tp1416
sS'ENR'
p1417
(S'ENERGIZER HOLDINGS INC'
p1418
g40
S'2,201,914.75'
p1419
tp1420
sS'CSX'
p1421
(S'CSX CORP'
p1422
g8
S'38,354,122.44'
p1423
tp1424
sS'W'
p1425
(S'WAYFAIR INC CLASS A'
p1426
g45
S'8,494,147.10'
p1427
tp1428
sS'PAYC'
p1429
(S'PAYCOM SOFTWARE INC'
p1430
g22
S'10,971,797.76'
p1431
tp1432
sS'EW'
p1433
(S'EDWARDS LIFESCIENCES CORP'
p1434
g58
S'32,254,654.90'
p1435
tp1436
sS'EV'
p1437
(S'EATON VANCE COM NON VOTING CORP'
p1438
g83
S'3,147,236.88'
p1439
tp1440
sS'CIM'
p1441
(S'CHIMERA INVESTMENT CORP'
p1442
g83
S'1,415,106.27'
p1443
tp1444
sS'ES'
p1445
(S'EVERSOURCE ENERGY'
p1446
g92
S'20,807,626.70'
p1447
tp1448
sS'ANTM'
p1449
(S'ANTHEM INC'
p1450
g58
S'51,064,156.20'
p1451
tp1452
sS'CZR'
p1453
(S'CAESARS ENTERTAINMENT CORP'
p1454
g45
S'4,869,221.94'
p1455
tp1456
sS'MGM'
p1457
(S'MGM RESORTS INTERNATIONAL'
p1458
g45
S'6,663,400.56'
p1459
tp1460
sS'VICI'
p1461
(S'VICI PPTYS INC'
p1462
g3
S'7,133,378.00'
p1463
tp1464
sS'ALGN'
p1465
(S'ALIGN TECHNOLOGY INC'
p1466
g58
S'14,003,715.60'
p1467
tp1468
sS'MTN'
p1469
(S'VAIL RESORTS INC'
p1470
g45
S'5,463,666.28'
p1471
tp1472
sS'CREE'
p1473
(S'CREE INC'
p1474
g22
S'4,817,178.76'
p1475
tp1476
sS'PODD'
p1477
(S'INSULET CORP'
p1478
g58
S'8,087,453.26'
p1479
tp1480
sS'AGIO'
p1481
(S'AGIOS PHARMACEUTICALS INC'
p1482
g58
S'2,293,932.24'
p1483
tp1484
sS'LUV'
p1485
(S'SOUTHWEST AIRLINES'
p1486
g8
S'13,113,746.52'
p1487
tp1488
sS'MUR'
p1489
(S'MURPHY OIL CORP'
p1490
g13
S'1,465,827.28'
p1491
tp1492
sS'ATO'
p1493
(S'ATMOS ENERGY CORP'
p1494
g92
S'9,127,181.61'
p1495
tp1496
sS'ESRT'
p1497
(S'EMPIRE STATE REALTY REIT INC TRUST'
p1498
g3
S'859,273.71'
p1499
tp1500
sS'ATH'
p1501
(S'ATHENE HOLDING LTD CLASS A'
p1502
g83
S'3,151,105.78'
p1503
tp1504
sS'MTB'
p1505
(S'M&T BANK CORP'
p1506
g83
S'10,536,174.08'
p1507
tp1508
sS'ATR'
p1509
(S'APTARGROUP INC'
p1510
g173
S'5,028,186.00'
p1511
tp1512
sS'CBSH'
p1513
(S'COMMERCE BANCSHARES INC'
p1514
g83
S'4,595,207.47'
p1515
tp1516
sS'JBL'
p1517
(S'JABIL INC'
p1518
g22
S'3,464,697.00'
p1519
tp1520
sS'ADSK'
p1521
(S'AUTODESK INC'
p1522
g22
S'36,755,339.60'
p1523
tp1524
sS'LBRDK'
p1525
(S'LIBERTY BROADBAND CORP SERIES C'
p1526
g27
S'10,245,595.53'
p1527
tp1528
sS'WPX'
p1529
(S'WPX ENERGY INC'
p1530
g13
S'1,933,417.16'
p1531
tp1532
sS'LBRDA'
p1533
(S'LIBERTY BROADBAND CORP SERIES A'
p1534
g27
S'2,381,378.34'
p1535
tp1536
sS'LNT'
p1537
(S'ALLIANT ENERGY CORP'
p1538
g92
S'8,923,416.30'
p1539
tp1540
sS'ECL'
p1541
(S'ECOLAB INC'
p1542
g173
S'38,242,387.56'
p1543
tp1544
sS'NUS'
p1545
(S'NU SKIN ENTERPRISES INC CLASS A'
p1546
g40
S'1,484,789.12'
p1547
tp1548
sS'MASI'
p1549
(S'MASIMO CORP'
p1550
g58
S'7,976,379.60'
p1551
tp1552
sS'MTG'
p1553
(S'MGIC INVESTMENT CORP'
p1554
g83
S'2,044,216.11'
p1555
tp1556
sS'ASB'
p1557
(S'ASSOCIATED BANCORP'
p1558
g83
S'1,596,603.71'
p1559
tp1560
sS'SEE'
p1561
(S'SEALED AIR CORP'
p1562
g173
S'3,610,772.40'
p1563
tp1564
sS'VMI'
p1565
(S'VALMONT INDS INC'
p1566
g8
S'1,759,224.72'
p1567
tp1568
sS'HPE'
p1569
(S'HEWLETT PACKARD ENTERPRISE'
p1570
g22
S'9,608,693.25'
p1571
tp1572
sS'RMD'
p1573
(S'RESMED INC'
p1574
g58
S'17,064,717.60'
p1575
tp1576
sS'PVH'
p1577
(S'PVH CORP'
p1578
g45
S'2,859,743.68'
p1579
tp1580
sS'DGX'
p1581
(S'QUEST DIAGNOSTICS INC'
p1582
g58
S'11,287,571.22'
p1583
tp1584
sS'NUE'
p1585
(S'NUCOR CORP'
p1586
g173
S'9,246,649.68'
p1587
tp1588
sS'CVNA'
p1589
(S'CARVANA CLASS A'
p1590
g45
S'4,040,055.16'
p1591
tp1592
sS'EXPE'
p1593
(S'EXPEDIA GROUP INC'
p1594
g45
S'7,927,449.51'
p1595
tp1596
sS'EXPD'
p1597
(S'EXPEDITORS INTERNATIONAL OF WASHIN'
p1598
g8
S'9,635,137.26'
p1599
tp1600
sS'FRC'
p1601
(S'FIRST REPUBLIC BANK'
p1602
g83
S'13,594,286.58'
p1603
tp1604
sS'IONS'
p1605
(S'IONIS PHARMACEUTICALS INC'
p1606
g58
S'5,450,050.44'
p1607
tp1608
sS'ETFC'
p1609
(S'E TRADE FINANCIAL CORP'
p1610
g83
S'7,835,313.86'
p1611
tp1612
sS'DUK'
p1613
(S'DUKE ENERGY CORP'
p1614
g92
S'48,263,828.76'
p1615
tp1616
sS'CLH'
p1617
(S'CLEAN HARBORS INC'
p1618
g8
S'2,318,350.72'
p1619
tp1620
sS'USFD'
p1621
(S'US FOODS HOLDING CORP'
p1622
g40
S'3,448,448.64'
p1623
tp1624
sS'CARR'
p1625
(S'CARRIER GLOBAL CORP'
p1626
g8
S'12,954,237.66'
p1627
tp1628
sS'REYN'
p1629
(S'REYNOLDS CONSUMER PRODUCTS INC'
p1630
g40
S'1,123,519.80'
p1631
tp1632
sS'MRVL'
p1633
(S'MARVELL TECHNOLOGY GROUP LTD'
p1634
g22
S'16,664,231.64'
p1635
tp1636
sS'CLX'
p1637
(S'CLOROX'
p1638
g40
S'19,649,713.05'
p1639
tp1640
sS'CMA'
p1641
(S'COMERICA INC'
p1642
g83
S'4,078,499.10'
p1643
tp1644
sS'BBY'
p1645
(S'BEST BUY INC'
p1646
g45
S'12,887,231.25'
p1647
tp1648
sS'FRT'
p1649
(S'FEDERAL REALTY INVESTMENT TRUST RE'
p1650
g3
S'5,053,986.65'
p1651
tp1652
sS'UNH'
p1653
(S'UNITEDHEALTH GROUP INC'
p1654
g58
S'204,099,189.39'
p1655
tp1656
sS'LNG'
p1657
(S'CHENIERE ENERGY INC'
p1658
g13
S'8,118,892.60'
p1659
tp1660
sS'CLR'
p1661
(S'CONTINENTAL RESOURCES INC'
p1662
g13
S'934,444.24'
p1663
tp1664
sS'UHAL'
p1665
(S'AMERCO'
p1666
g8
S'2,040,542.64'
p1667
tp1668
sS'INFO'
p1669
(S'IHS MARKIT LTD'
p1670
g8
S'20,412,930.54'
p1671
tp1672
sS'SWI'
p1673
(S'SOLARWINDS CORP'
p1674
g22
S'536,221.14'
p1675
tp1676
sS'ASH'
p1677
(S'ASHLAND GLOBAL'
p1678
g173
S'2,698,783.74'
p1679
tp1680
sS'OMF'
p1681
(S'ONEMAIN HOLDINGS INC'
p1682
g83
S'1,193,167.72'
p1683
tp1684
sS'RGA'
p1685
(S'REINSURANCE GROUP OF AMERICA INC'
p1686
g83
S'4,437,514.62'
p1687
tp1688
sS'CNK'
p1689
(S'CINEMARK HOLDINGS INC'
p1690
g27
S'1,118,827.86'
p1691
tp1692
sS'KO'
p1693
(S'COCA-COLA'
p1694
g40
S'132,869,325.60'
p1695
tp1696
sS'VMC'
p1697
(S'VULCAN MATERIALS'
p1698
g173
S'10,947,290.59'
p1699
tp1700
sS'ARNC'
p1701
(S'ARCONIC CORP'
p1702
g173
S'1,113,018.55'
p1703
tp1704
sS'KR'
p1705
(S'KROGER'
p1706
g40
S'19,807,207.50'
p1707
tp1708
sS'LNC'
p1709
(S'LINCOLN NATIONAL CORP'
p1710
g83
S'5,879,674.71'
p1711
tp1712
sS'ANET'
p1713
(S'ARISTA NETWORKS INC'
p1714
g22
S'9,923,236.40'
p1715
tp1716
sS'NCLH'
p1717
(S'NORWEGIAN CRUISE LINE HOLDINGS LTD'
p1718
g45
S'3,240,326.25'
p1719
tp1720
sS'ITW'
p1721
(S'ILLINOIS TOOL INC'
p1722
g8
S'40,249,121.11'
p1723
tp1724
sS'ITT'
p1725
(S'ITT INC'
p1726
g8
S'3,683,330.56'
p1727
tp1728
sS'WPC'
p1729
(S'W. P. CAREY REIT INC'
p1730
g3
S'8,372,264.70'
p1731
tp1732
sS'KLAC'
p1733
(S'KLA CORP'
p1734
g22
S'21,434,304.26'
p1735
tp1736
sS'UBER'
p1737
(S'UBER TECHNOLOGIES INC'
p1738
g8
S'22,494,723.30'
p1739
tp1740
sS'UNP'
p1741
(S'UNION PACIFIC CORP'
p1742
g8
S'86,299,091.58'
p1743
tp1744
sS'SWK'
p1745
(S'STANLEY BLACK & DECKER INC'
p1746
g8
S'14,818,762.70'
p1747
tp1748
sS'PNR'
p1749
(S'PENTAIR'
p1750
g8
S'4,765,408.24'
p1751
tp1752
sS'WYNN'
p1753
(S'WYNN RESORTS LTD'
p1754
g45
S'6,701,065.28'
p1755
tp1756
sS'WBS'
p1757
(S'WEBSTER FINANCIAL CORP'
p1758
g83
S'1,879,912.65'
p1759
tp1760
sS'TTWO'
p1761
(S'TAKE TWO INTERACTIVE SOFTWARE INC'
p1762
g27
S'11,539,302.84'
p1763
tp1764
sS'AGO'
p1765
(S'ASSURED GUARANTY LTD'
p1766
g83
S'1,768,588.80'
p1767
tp1768
sS'DG'
p1769
(S'DOLLAR GENERAL CORP'
p1770
g45
S'36,518,412.24'
p1771
tp1772
sS'DD'
p1773
(S'DUPONT DE NEMOURS INC'
p1774
g173
S'28,203,214.20'
p1775
tp1776
sS'ANSS'
p1777
(S'ANSYS INC'
p1778
g22
S'17,269,277.76'
p1779
tp1780
sS'WYND'
p1781
(S'WYNDHAM DESTINATIONS INC'
p1782
g45
S'2,223,464.91'
p1783
tp1784
sS'XTSLA'
p1785
(S'BLK CSH FND TREASURY SL AGENCY'
p1786
g1266
S'29,936,000.00'
p1787
tp1788
sS'GNTX'
p1789
(S'GENTEX CORP'
p1790
g45
S'5,014,519.20'
p1791
tp1792
sS'AAP'
p1793
(S'ADVANCE AUTO PARTS INC'
p1794
g45
S'6,609,904.50'
p1795
tp1796
sS'WBA'
p1797
(S'WALGREEN BOOTS ALLIANCE INC'
p1798
g40
S'23,442,008.00'
p1799
tp1800
sS'DT'
p1801
(S'DYNATRACE INC'
p1802
g22
S'4,086,196.56'
p1803
tp1804
sS'EVR'
p1805
(S'EVERCORE INC CLASS A'
p1806
g83
S'1,713,527.41'
p1807
tp1808
sS'BIO'
p1809
(S'BIO RAD LABORATORIES INC CLASS A'
p1810
g58
S'7,135,795.52'
p1811
tp1812
sS'TGT'
p1813
(S'TARGET CORP'
p1814
g45
S'43,989,289.59'
p1815
tp1816
sS'HBAN'
p1817
(S'HUNTINGTON BANCSHARES INC'
p1818
g83
S'7,304,861.40'
p1819
tp1820
sS'BIIB'
p1821
(S'BIOGEN INC'
p1822
g58
S'37,416,760.64'
p1823
tp1824
sS'TWLO'
p1825
(S'TWILIO INC CLASS A'
p1826
g22
S'17,611,240.56'
p1827
tp1828
sS'JBGS'
p1829
(S'JBG SMITH PROPERTIES'
p1830
g3
S'2,686,878.03'
p1831
tp1832
sS'TCBI'
p1833
(S'TEXAS CAPITAL BANCSHARES INC'
p1834
g83
S'1,246,498.40'
p1835
tp1836
sS'ROKU'
p1837
(S'ROKU INC CLASS A'
p1838
g27
S'6,878,810.10'
p1839
tp1840
sS'ATVI'
p1841
(S'ACTIVISION BLIZZARD INC'
p1842
g27
S'41,087,217.60'
p1843
tp1844
sS'CRL'
p1845
(S'CHARLES RIVER LABORATORIES INTERNA'
p1846
g58
S'6,458,202.72'
p1847
tp1848
sS'TEAM'
p1849
(S'ATLASSIAN PLC CLASS A'
p1850
g22
S'15,808,452.50'
p1851
tp1852
sS'ARD'
p1853
(S'ARDAGH GROUP SA CLASS A'
p1854
g173
S'173,030.25'
p1855
tp1856
sS'ETRN'
p1857
(S'EQUITRANS MIDSTREAM CORP'
p1858
g13
S'1,344,098.88'
p1859
tp1860
sS'RPM'
p1861
(S'RPM INTERNATIONAL INC'
p1862
g173
S'6,992,043.52'
p1863
tp1864
sS'PNFP'
p1865
(S'PINNACLE FINANCIAL PARTNERS INC'
p1866
g83
S'2,171,383.50'
p1867
tp1868
sS'AKAM'
p1869
(S'AKAMAI TECHNOLOGIES INC'
p1870
g22
S'11,991,584.64'
p1871
tp1872
sS'DHI'
p1873
(S'D R HORTON INC'
p1874
g45
S'12,931,077.21'
p1875
tp1876
sS'HOLX'
p1877
(S'HOLOGIC INC'
p1878
g58
S'10,042,952.88'
p1879
tp1880
sS'M'
p1881
(S'MACYS INC'
p1882
g45
S'1,635,940.28'
p1883
tp1884
sS'MLM'
p1885
(S'MARTIN MARIETTA MATERIALS INC'
p1886
g173
S'8,986,630.64'
p1887
tp1888
sS'INTU'
p1889
(S'INTUIT INC'
p1890
g22
S'52,625,521.43'
p1891
tp1892
sS'OGE'
p1893
(S'OGE ENERGY CORP'
p1894
g92
S'4,666,840.24'
p1895
tp1896
sS'ALXN'
p1897
(S'ALEXION PHARMACEUTICALS INC'
p1898
g58
S'17,800,064.88'
p1899
tp1900
sS'PAG'
p1901
(S'PENSKE AUTOMOTIVE GROUP VOTING INC'
p1902
g45
S'891,610.72'
p1903
tp1904
sS'CRNC'
p1905
(S'CERENCE INC'
p1906
g22
S'1,033,006.56'
p1907
tp1908
sS'ETSY'
p1909
(S'ETSY INC'
p1910
g45
S'6,878,194.56'
p1911
tp1912
sS'RBC'
p1913
(S'REGAL BELOIT CORP'
p1914
g8
S'2,339,790.09'
p1915
tp1916
sS'DHR'
p1917
(S'DANAHER CORP'
p1918
g58
S'78,381,092.50'
p1919
tp1920
sS'SLB'
p1921
(S'SCHLUMBERGER NV'
p1922
g13
S'19,599,313.50'
p1923
tp1924
sS'AJG'
p1925
(S'ARTHUR J GALLAGHER'
p1926
g83
S'13,426,643.22'
p1927
tp1928
sS'MCO'
p1929
(S'MOODYS CORP'
p1930
g83
S'31,981,262.72'
p1931
tp1932
sS'YUMC'
p1933
(S'YUM CHINA HOLDINGS INC'
p1934
g45
S'13,423,458.18'
p1935
tp1936
sS'MCD'
p1937
(S'MCDONALDS CORP'
p1938
g45
S'107,540,735.20'
p1939
tp1940
sS'NRG'
p1941
(S'NRG ENERGY INC'
p1942
g92
S'6,416,874.09'
p1943
tp1944
sS'DLB'
p1945
(S'DOLBY LABORATORIES INC CLASS A'
p1946
g22
S'3,015,476.32'
p1947
tp1948
sS'PBCT'
p1949
(S'PEOPLES UNITED FINANCIAL INC'
p1950
g83
S'3,857,209.62'
p1951
tp1952
sS'NRZ'
p1953
(S'NEW RESIDENTIAL INVESTMENT REIT CO'
p1954
g83
S'2,181,567.06'
p1955
tp1956
sS'MDB'
p1957
(S'MONGODB INC CLASS A'
p1958
g22
S'6,406,748.32'
p1959
tp1960
sS'VTR'
p1961
(S'VENTAS REIT INC'
p1962
g3
S'10,346,528.28'
p1963
tp1964
sS'MFA'
p1965
(S'MFA FINANCIAL REIT INC'
p1966
g83
S'820,987.30'
p1967
tp1968
sS'H'
p1969
(S'HYATT HOTELS CORP CLASS A'
p1970
g45
S'1,420,654.08'
p1971
tp1972
sS'CIEN'
p1973
(S'CIENA CORP'
p1974
g22
S'6,076,565.27'
p1975
tp1976
sS'XPO'
p1977
(S'XPO LOGISTICS INC'
p1978
g8
S'5,209,611.16'
p1979
tp1980
sS'AXS'
p1981
(S'AXIS CAPITAL HOLDINGS LTD'
p1982
g83
S'2,412,813.38'
p1983
tp1984
sS'AXP'
p1985
(S'AMERICAN EXPRESS'
p1986
g83
S'49,672,313.60'
p1987
tp1988
sS'NFLX'
p1989
(S'NETFLIX INC'
p1990
g27
S'136,417,513.60'
p1991
tp1992
sS'EXC'
p1993
(S'EXELON CORP'
p1994
g92
S'28,114,878.65'
p1995
tp1996
sS'ENTG'
p1997
(S'ENTEGRIS INC'
p1998
g22
S'5,866,951.20'
p1999
tp2000
sS'AAPL'
p2001
(S'APPLE INC'
p2002
g22
S'1,053,941,673.50'
p2003
tp2004
sS'SRCL'
p2005
(S'STERICYCLE INC'
p2006
g8
S'3,799,845.42'
p2007
tp2008
sS'WH'
p2009
(S'WYNDHAM HOTELS RESORTS INC'
p2010
g45
S'3,060,627.08'
p2011
tp2012
sS'FCNCA'
p2013
(S'FIRST CITIZENS BANCSHARES INC CLAS'
p2014
g83
S'1,933,603.85'
p2015
tp2016
sS'WU'
p2017
(S'WESTERN UNION'
p2018
g22
S'7,217,010.00'
p2019
tp2020
sS'BG'
p2021
(S'BUNGE LTD'
p2022
g40
S'4,129,211.52'
p2023
tp2024
sS'EXR'
p2025
(S'EXTRA SPACE STORAGE REIT INC'
p2026
g3
S'8,936,882.24'
p2027
tp2028
sS'EXP'
p2029
(S'EAGLE MATERIALS INC'
p2030
g173
S'1,963,153.29'
p2031
tp2032
sS'ELS'
p2033
(S'EQUITY LIFESTYLE PROPERTIES REIT I'
p2034
g3
S'8,045,846.64'
p2035
tp2036
sS'WY'
p2037
(S'WEYERHAEUSER REIT'
p2038
g3
S'11,705,255.64'
p2039
tp2040
sS'DKS'
p2041
(S'DICKS SPORTING INC'
p2042
g45
S'1,794,321.36'
p2043
tp2044
sS'Z'
p2045
(S'ZILLOW GROUP INC CLASS C'
p2046
g27
S'5,658,375.20'
p2047
tp2048
sS'DCI'
p2049
(S'DONALDSON INC'
p2050
g8
S'4,326,571.11'
p2051
tp2052
sS'VNO'
p2053
(S'VORNADO REALTY TRUST REIT'
p2054
g3
S'5,150,271.24'
p2055
tp2056
sS'OFC'
p2057
(S'CORPORATE OFFICE PROPERTIES TRUST'
p2058
g3
S'2,092,673.60'
p2059
tp2060
sS'SPLK'
p2061
(S'SPLUNK INC'
p2062
g22
S'20,596,182.04'
p2063
tp2064
sS'CDNS'
p2065
(S'CADENCE DESIGN SYSTEMS INC'
p2066
g22
S'18,759,452.67'
p2067
tp2068
sS'UNM'
p2069
(S'UNUM'
p2070
g83
S'2,420,222.35'
p2071
tp2072
sS'AWK'
p2073
(S'AMERICAN WATER WORKS INC'
p2074
g92
S'17,525,640.00'
p2075
tp2076
sS'HST'
p2077
(S'HOST HOTELS & RESORTS REIT INC'
p2078
g3
S'6,622,901.83'
p2079
tp2080
sS'RIG'
p2081
(S'TRANSOCEAN LTD'
p2082
g13
S'880,774.54'
p2083
tp2084
sS'HSY'
p2085
(S'HERSHEY FOODS'
p2086
g40
S'14,121,284.19'
p2087
tp2088
sS'MIC'
p2089
(S'MACQUARIE INFRASTRUCTURE CORP'
p2090
g8
S'1,725,495.96'
p2091
tp2092
sS'FBHS'
p2093
(S'FORTUNE BRANDS HOME AND SECURITY I'
p2094
g8
S'6,194,150.00'
p2095
tp2096
sS'CTSH'
p2097
(S'COGNIZANT TECHNOLOGY SOLUTIONS COR'
p2098
g22
S'22,487,135.22'
p2099
tp2100
sS'OMC'
p2101
(S'OMNICOM GROUP INC'
p2102
g27
S'8,930,943.45'
p2103
tp2104
sS'GPN'
p2105
(S'GLOBAL PAYMENTS INC'
p2106
g22
S'39,788,062.72'
p2107
tp2108
sS'DISCA'
p2109
(S'DISCOVERY INC SERIES A'
p2110
g27
S'2,724,005.56'
p2111
tp2112
sS'HAL'
p2113
(S'HALLIBURTON'
p2114
g13
S'8,056,822.04'
p2115
tp2116
sS'GPK'
p2117
(S'GRAPHIC PACKAGING HOLDING'
p2118
g173
S'2,896,420.90'
p2119
tp2120
sS'EXEL'
p2121
(S'EXELIXIS INC'
p2122
g58
S'4,962,352.12'
p2123
tp2124
sS'FITB'
p2125
(S'FIFTH THIRD BANCORP'
p2126
g83
S'10,746,528.00'
p2127
tp2128
sS'EQR'
p2129
(S'EQUITY RESIDENTIAL REIT'
p2130
g3
S'17,078,586.80'
p2131
tp2132
sS'IAA'
p2133
(S'IAA INC'
p2134
g8
S'4,075,280.88'
p2135
tp2136
sS'WEN'
p2137
(S'WENDYS'
p2138
g45
S'3,043,950.64'
p2139
tp2140
sS'IAC'
p2141
(S'IAC INTERACTIVE'
p2142
g27
S'15,341,437.67'
p2143
tp2144
sS'GPC'
p2145
(S'GENUINE PARTS'
p2146
g45
S'8,939,198.19'
p2147
tp2148
sS'THO'
p2149
(S'THOR INDUSTRIES INC'
p2150
g45
S'4,192,734.84'
p2151
tp2152
sS'EQH'
p2153
(S'EQUITABLE HOLDINGS INC'
p2154
g83
S'6,051,478.55'
p2155
tp2156
sS'TRMB'
p2157
(S'TRIMBLE INC'
p2158
g22
S'7,897,378.74'
p2159
tp2160
sS'FTDR'
p2161
(S'FRONTDOOR INC'
p2162
g45
S'2,832,340.98'
p2163
tp2164
sS'KNX'
p2165
(S'KNIGHT-SWIFT TRANSPORTATION HOLDIN'
p2166
g8
S'3,620,263.68'
p2167
tp2168
sS'THG'
p2169
(S'HANOVER INSURANCE GROUP INC'
p2170
g83
S'2,886,836.64'
p2171
tp2172
sS'X'
p2173
(S'US STEEL CORP'
p2174
g173
S'968,504.11'
p2175
tp2176
sS'XLNX'
p2177
(S'XILINX INC'
p2178
g22
S'17,017,844.90'
p2179
tp2180
sS'HAS'
p2181
(S'HASBRO INC'
p2182
g45
S'6,792,404.80'
p2183
tp2184
sS'PH'
p2185
(S'PARKER-HANNIFIN CORP'
p2186
g8
S'16,942,440.32'
p2187
tp2188
sS'CLNY'
p2189
(S'COLONY CAPITAL INC CLASS A'
p2190
g3
S'867,303.80'
p2191
tp2192
sS'GPS'
p2193
(S'GAP INC'
p2194
g45
S'1,762,352.28'
p2195
tp2196
sS'LSXMK'
p2197
(g1249
g27
S'4,554,502.08'
p2198
tp2199
sS'BOH'
p2200
(S'BANK OF HAWAII CORP.'
p2201
g83
S'1,751,131.58'
p2202
tp2203
sS'ANAT'
p2204
(S'AMERICAN NATIONAL INSURANCE'
p2205
g83
S'399,395.28'
p2206
tp2207
sS'CHNG'
p2208
(S'CHANGE HEALTHCARE INC'
p2209
g58
S'1,803,034.35'
p2210
tp2211
sS'SYF'
p2212
(S'SYNCHRONY FINANCIAL'
p2213
g83
S'10,335,411.50'
p2214
tp2215
sS'PHM'
p2216
(S'PULTEGROUP INC'
p2217
g45
S'6,383,322.33'
p2218
tp2219
sS'SYK'
p2220
(S'STRYKER CORP'
p2221
g58
S'47,900,819.82'
p2222
tp2223
sS'KMPR'
p2224
(S'KEMPER CORP'
p2225
g83
S'3,097,389.36'
p2226
tp2227
sS'LEG'
p2228
(S'LEGGETT & PLATT INC'
p2229
g45
S'3,189,717.96'
p2230
tp2231
sS'EQT'
p2232
(S'EQT CORP'
p2233
g13
S'2,839,114.44'
p2234
tp2235
sS'KEY'
p2236
(S'KEYCORP'
p2237
g83
S'9,383,903.00'
p2238
tp2239
sS'KIM'
p2240
(S'KIMCO REALTY REIT CORP'
p2241
g3
S'3,921,272.60'
p2242
tp2243
sS'SYY'
p2244
(S'SYSCO CORP'
p2245
g40
S'19,187,315.55'
p2246
tp2247
sS'GWRE'
p2248
(S'GUIDEWIRE SOFTWARE INC'
p2249
g22
S'6,457,228.54'
p2250
tp2251
sS'AEP'
p2252
(S'AMERICAN ELECTRIC POWER INC'
p2253
g92
S'30,793,432.32'
p2254
tp2255
sS'AES'
p2256
(S'AES CORP'
p2257
g92
S'6,068,255.60'
p2258
tp2259
sS'Y'
p2260
(S'ALLEGHANY CORP'
p2261
g83
S'5,196,527.44'
p2262
tp2263
sS'CCK'
p2264
(S'CROWN HOLDINGS INC'
p2265
g173
S'6,166,822.10'
p2266
tp2267
sS'SMAR'
p2268
(S'SMARTSHEET INC CLASS A'
p2269
g22
S'2,931,930.00'
p2270
tp2271
sS'ZEN'
p2272
(S'ZENDESK INC'
p2273
g22
S'6,731,444.44'
p2274
tp2275
sS'EMN'
p2276
(S'EASTMAN CHEMICAL'
p2277
g173
S'6,992,369.53'
p2278
tp2279
sS'SKX'
p2280
(S'SKECHERS USA INC CLASS A'
p2281
g45
S'3,184,229.52'
p2282
tp2283
sS'SLG'
p2284
(S'SL GREEN REALTY REIT CORP'
p2285
g3
S'2,866,545.89'
p2286
tp2287
sS'DNKN'
p2288
(S'DUNKIN BRANDS GROUP INC'
p2289
g45
S'4,124,968.26'
p2290
tp2291
sS'AMAT'
p2292
(S'APPLIED MATERIAL INC'
p2293
g22
S'38,904,746.25'
p2294
tp2295
sS'FDS'
p2296
(S'FACTSET RESEARCH SYSTEMS INC'
p2297
g83
S'8,171,602.60'
p2298
tp2299
sS'KEX'
p2300
(S'KIRBY CORP'
p2301
g8
S'2,448,383.88'
p2302
tp2303
sS'AEE'
p2304
(S'AMEREN CORP'
p2305
g92
S'13,450,315.84'
p2306
tp2307
sS'CTAS'
p2308
(S'CINTAS CORP'
p2309
g8
S'17,041,464.00'
p2310
tp2311
sS'EMR'
p2312
(S'EMERSON ELECTRIC'
p2313
g8
S'28,179,499.10'
p2314
tp2315
sS'FDX'
p2316
(S'FEDEX CORP'
p2317
g8
S'23,706,578.83'
p2318
tp2319
sS'CRI'
p2320
(S'CARTERS INC'
p2321
g45
S'2,645,047.41'
p2322
tp2323
sS'ACGL'
p2324
(S'ARCH CAPITAL GROUP LTD'
p2325
g83
S'8,823,450.90'
p2326
tp2327
sS'QRVO'
p2328
(S'QORVO INC'
p2329
g22
S'9,543,964.08'
p2330
tp2331
sS'CRM'
p2332
(S'SALESFORCE.COM INC'
p2333
g22
S'109,948,380.45'
p2334
tp2335
sS'EQC'
p2336
(S'EQUITY COMMONWEALTH REIT'
p2337
g3
S'2,921,018.88'
p2338
tp2339
sS'PS'
p2340
(S'PLURALSIGHT INC CLASS A'
p2341
g22
S'836,121.23'
p2342
tp2343
sS'STOR'
p2344
(S'STORE CAPITAL CORP'
p2345
g3
S'3,703,262.64'
p2346
tp2347
sS'FANG'
p2348
(S'DIAMONDBACK ENERGY INC'
p2349
g13
S'5,332,515.60'
p2350
tp2351
sS'SABR'
p2352
(S'SABRE CORP'
p2353
g22
S'1,665,123.24'
p2354
tp2355
sS'NWSA'
p2356
(S'NEWS CORP CLASS A'
p2357
g27
S'3,434,478.46'
p2358
tp2359
sS'ABMD'
p2360
(S'ABIOMED INC'
p2361
g58
S'7,829,223.60'
p2362
tp2363
sS'NATI'
p2364
(S'NATIONAL INSTRUMENTS CORP'
p2365
g22
S'3,670,176.42'
p2366
tp2367
sS'VIACA'
p2368
(S'VIACOMCBS INC CLASS A'
p2369
g27
S'112,916.76'
p2370
tp2371
sS'URBN'
p2372
(S'URBAN OUTFITTERS INC'
p2373
g45
S'812,043.21'
p2374
tp2375
sS'PB'
p2376
(S'PROSPERITY BANCSHARES INC'
p2377
g83
S'4,194,148.40'
p2378
tp2379
sS'TCO'
p2380
(S'TAUBMAN CENTERS REIT INC'
p2381
g3
S'1,572,703.47'
p2382
tp2383
sS'OLED'
p2384
(S'UNIVERSAL DISPLAY CORP'
p2385
g22
S'4,924,579.84'
p2386
tp2387
sS'CIT'
p2388
(S'CIT GROUP INC'
p2389
g83
S'1,628,104.96'
p2390
tp2391
sS'PG'
p2392
(S'PROCTER & GAMBLE'
p2393
g40
S'215,332,935.42'
p2394
tp2395
sS'PD'
p2396
(S'PAGERDUTY INC'
p2397
g22
S'773,721.25'
p2398
tp2399
sS'SGEN'
p2400
(S'SEATTLE GENETICS INC'
p2401
g58
S'13,163,461.15'
p2402
tp2403
sS'TCF'
p2404
(S'TCF FINANCIAL CORP'
p2405
g83
S'3,343,368.00'
p2406
tp2407
sS'PK'
p2408
(S'PARK HOTELS RESORTS INC'
p2409
g3
S'2,118,498.72'
p2410
tp2411
sS'CTXS'
p2412
(S'CITRIX SYSTEMS INC'
p2413
g22
S'12,236,712.12'
p2414
tp2415
sS'TREE'
p2416
(S'LENDINGTREE INC'
p2417
g83
S'1,514,576.28'
p2418
tp2419
sS'PM'
p2420
(S'PHILIP MORRIS INTERNATIONAL INC'
p2421
g40
S'84,278,561.25'
p2422
tp2423
sS'EFX'
p2424
(S'EQUIFAX INC'
p2425
g8
S'15,481,901.35'
p2426
tp2427
sS'AGNC'
p2428
(S'AGNC INVESTMENT REIT CORP'
p2429
g83
S'5,399,550.72'
p2430
tp2431
sS'C'
p2432
(S'CITIGROUP INC'
p2433
g83
S'77,824,185.30'
p2434
tp2435
sS'TMUS'
p2436
(S'T MOBILE US INC'
p2437
g27
S'28,477,110.51'
p2438
tp2439
sS'PII'
p2440
(S'POLARIS INC'
p2441
g45
S'4,176,976.76'
p2442
tp2443
sS'MKSI'
p2444
(S'MKS INSTRUMENTS INC'
p2445
g22
S'4,295,400.60'
p2446
tp2447
sS'SIRI'
p2448
(S'SIRIUS XM HOLDINGS INC'
p2449
g27
S'5,982,151.50'
p2450
tp2451
sS'FOX'
p2452
(S'FOX CORP CLASS B'
p2453
g27
S'3,257,502.80'
p2454
tp2455
sS'LYV'
p2456
(S'LIVE NATION ENTERTAINMENT INC'
p2457
g27
S'4,569,816.02'
p2458
tp2459
sS'CSGP'
p2460
(S'COSTAR GROUP INC'
p2461
g8
S'19,091,888.42'
p2462
tp2463
sS'MSCI'
p2464
(S'MSCI INC'
p2465
g83
S'18,691,360.98'
p2466
tp2467
sS'QCOM'
p2468
(S'QUALCOMM INC'
p2469
g22
S'73,033,292.74'
p2470
tp2471
sS'APTV'
p2472
(S'APTIV PLC'
p2473
g45
S'14,196,653.60'
p2474
tp2475
sS'IBKR'
p2476
(S'INTERACTIVE BROKERS GROUP INC CLAS'
p2477
g83
S'2,313,547.50'
p2478
tp2479
sS'VMW'
p2480
(S'VMWARE CLASS A INC'
p2481
g22
S'7,963,833.57'
p2482
tp2483
sS'COTY'
p2484
(S'COTY INC CLASS A'
p2485
g40
S'987,145.72'
p2486
tp2487
sS'SSNC'
p2488
(S'SS AND C TECHNOLOGIES HOLDINGS INC'
p2489
g22
S'9,387,028.68'
p2490
tp2491
sS'NVST'
p2492
(S'ENVISTA HOLDINGS CORP'
p2493
g58
S'2,095,350.60'
p2494
tp2495
sS'ULTA'
p2496
(S'ULTA BEAUTY INC'
p2497
g45
S'9,430,490.00'
p2498
tp2499
sS'NVT'
p2500
(S'NVENT ELECTRIC PLC'
p2501
g8
S'2,112,197.78'
p2502
tp2503
sS'NBIX'
p2504
(S'NEUROCRINE BIOSCIENCES INC'
p2505
g58
S'7,819,129.68'
p2506
tp2507
sS'NVR'
p2508
(S'NVR INC'
p2509
g45
S'7,520,375.01'
p2510
tp2511
sS'IPGP'
p2512
(S'IPG PHOTONICS CORP'
p2513
g22
S'4,272,764.01'
p2514
tp2515
sS'MOS'
p2516
(S'MOSAIC'
p2517
g173
S'3,256,327.98'
p2518
tp2519
sS'PSA'
p2520
(S'PUBLIC STORAGE REIT'
p2521
g3
S'22,033,700.01'
p2522
tp2523
sS'MKTX'
p2524
(S'MARKETAXESS HOLDINGS INC'
p2525
g83
S'13,539,137.16'
p2526
tp2527
sS'WWE'
p2528
(S'WORLD WRESTLING ENTERTAINMENT INC'
p2529
g27
S'1,399,401.12'
p2530
tp2531
sS'WWD'
p2532
(S'WOODWARD INC'
p2533
g8
S'3,038,261.80'
p2534
tp2535
sS'PSX'
p2536
(S'PHILLIPS'
p2537
g13
S'25,250,625.00'
p2538
tp2539
sS'MOH'
p2540
(S'MOLINA HEALTHCARE INC'
p2541
g58
S'7,683,624.96'
p2542
tp2543
sS'CDEV'
p2544
(S'CENTENNIAL RESOURCE DEVELOPMENT IN'
p2545
g13
S'225,726.71'
p2546
tp2547
sS'MCHP'
p2548
(S'MICROCHIP TECHNOLOGY INC'
p2549
g22
S'17,429,419.75'
p2550
tp2551
sS'RNR'
p2552
(S'RENAISSANCERE HOLDING LTD'
p2553
g83
S'6,639,455.18'
p2554
tp2555
sS'TFSL'
p2556
(S'TFS FINANCIAL CORP'
p2557
g83
S'453,510.90'
p2558
tp2559
sS'XRX'
p2560
(S'XEROX HOLDINGS CORP'
p2561
g22
S'2,140,637.40'
p2562
tp2563
sS'ETR'
p2564
(S'ENTERGY CORP'
p2565
g92
S'14,696,363.13'
p2566
tp2567
sS'COP'
p2568
(S'CONOCOPHILLIPS'
p2569
g13
S'34,844,149.08'
p2570
tp2571
sS'HES'
p2572
(S'HESS CORP'
p2573
g13
S'9,920,325.36'
p2574
tp2575
sS'COR'
p2576
(S'CORESITE REALTY REIT CORP'
p2577
g3
S'3,531,977.46'
p2578
tp2579
sS'KMB'
p2580
(S'KIMBERLY CLARK CORP'
p2581
g40
S'35,606,721.20'
p2582
tp2583
sS'CTVA'
p2584
(S'CORTEVA INC'
p2585
g173
S'15,350,307.20'
p2586
tp2587
sS'PEP'
p2588
(S'PEPSICO INC'
p2589
g40
S'136,286,516.64'
p2590
tp2591
sS'PEGA'
p2592
(S'PEGASYSTEMS INC'
p2593
g22
S'2,577,996.48'
p2594
tp2595
sS'KMI'
p2596
(S'KINDER MORGAN INC'
p2597
g13
S'23,081,966.49'
p2598
tp2599
sS'ACM'
p2600
(S'AECOM'
p2601
g8
S'4,358,574.75'
p2602
tp2603
sS'GWW'
p2604
(S'WW GRAINGER INC'
p2605
g8
S'9,961,100.46'
p2606
tp2607
sS'FISV'
p2608
(S'FISERV INC'
p2609
g22
S'42,843,538.15'
p2610
tp2611
sS'COG'
p2612
(S'CABOT OIL & GAS CORP'
p2613
g13
S'6,099,076.76'
p2614
tp2615
sS'COF'
p2616
(S'CAPITAL ONE FINANCIAL CORP'
p2617
g83
S'22,873,817.28'
p2618
tp2619
sS'CLGX'
p2620
(S'CORELOGIC INC'
p2621
g8
S'2,711,339.40'
p2622
tp2623
sS'PEG'
p2624
(S'PUBLIC SERVICE ENTERPRISE GROUP IN'
p2625
g92
S'19,120,400.00'
p2626
tp2627
sS'ETN'
p2628
(S'EATON PLC'
p2629
g8
S'26,750,910.68'
p2630
tp2631
sS'COO'
p2632
(S'COOPER INC'
p2633
g58
S'10,349,246.70'
p2634
tp2635
sS'KMX'
p2636
(S'CARMAX INC'
p2637
g45
S'10,797,947.58'
p2638
tp2639
sS'HWM'
p2640
(S'HOWMET AEROSPACE INC'
p2641
g8
S'3,760,033.42'
p2642
tp2643
sS'TSLA'
p2644
(S'TESLA INC'
p2645
g45
S'106,791,565.32'
p2646
tp2647
sS'DLTR'
p2648
(S'DOLLAR TREE INC'
p2649
g45
S'15,867,729.90'
p2650
tp2651
sS'OLN'
p2652
(S'OLIN CORP'
p2653
g173
S'1,463,533.72'
p2654
tp2655
sS'ZBH'
p2656
(S'ZIMMER BIOMET HOLDINGS INC'
p2657
g58
S'18,874,823.40'
p2658
tp2659
sS'ARMK'
p2660
(S'ARAMARK'
p2661
g45
S'4,679,140.18'
p2662
tp2663
sS'AAL'
p2664
(S'AMERICAN AIRLINES GROUP INC'
p2665
g8
S'4,168,603.82'
p2666
tp2667
sS'JKHY'
p2668
(S'JACK HENRY AND ASSOCIATES INC'
p2669
g22
S'10,294,089.30'
p2670
tp2671
sS'KDP'
p2672
(S'KEURIG DR PEPPER INC'
p2673
g40
S'5,959,675.28'
p2674
tp2675
sS'IEX'
p2676
(S'IDEX CORP'
p2677
g8
S'8,598,576.88'
p2678
tp2679
sS'CI'
p2680
(S'CIGNA CORP'
p2681
g58
S'53,410,376.08'
p2682
tp2683
sS'DE'
p2684
(S'DEERE'
p2685
g8
S'32,608,092.71'
p2686
tp2687
sS'SRE'
p2688
(S'SEMPRA ENERGY'
p2689
g92
S'26,517,206.52'
p2690
tp2691
sS'CC'
p2692
(S'CHEMOURS'
p2693
g173
S'1,771,930.40'
p2694
tp2695
sS'CB'
p2696
(S'CHUBB LTD'
p2697
g83
S'41,685,130.08'
p2698
tp2699
sS'WAB'
p2700
(S'WESTINGHOUSE AIR BRAKE TECHNOLOGIE'
p2701
g8
S'8,229,480.00'
p2702
tp2703
sS'CE'
p2704
(S'CELANESE CORP'
p2705
g173
S'7,719,565.44'
p2706
tp2707
sS'BRX'
p2708
(S'BRIXMOR PROPERTY GROUP REIT INC'
p2709
g3
S'2,885,356.32'
p2710
tp2711
sS'COMM'
p2712
(S'COMMSCOPE HOLDING INC'
p2713
g22
S'1,473,381.60'
p2714
tp2715
sS'FEYE'
p2716
(S'FIREEYE INC'
p2717
g22
S'1,824,582.24'
p2718
tp2719
sS'KRC'
p2720
(S'KILROY REALTY REIT CORP'
p2721
g3
S'4,736,182.00'
p2722
tp2723
sS'EXAS'
p2724
(S'EXACT SCIENCES CORP'
p2725
g58
S'9,482,625.30'
p2726
tp2727
sS'CW'
p2728
(S'CURTISS WRIGHT CORP'
p2729
g8
S'3,034,897.64'
p2730
tp2731
sS'HEI'
p2732
(S'HEICO CORP'
p2733
g8
S'3,468,927.28'
p2734
tp2735
sS'ZTS'
p2736
(S'ZOETIS INC CLASS A'
p2737
g58
S'47,752,104.18'
p2738
tp2739
sS'CHRW'
p2740
(S'CH ROBINSON WORLDWIDE INC'
p2741
g8
S'8,067,229.55'
p2742
tp2743
sS'HXL'
p2744
(S'HEXCEL CORP'
p2745
g8
S'2,542,389.15'
p2746
tp2747
sS'ATUS'
p2748
(S'ALTICE USA INC CLASS A'
p2749
g27
S'5,485,955.50'
p2750
tp2751
sS'TDC'
p2752
(S'TERADATA CORP'
p2753
g22
S'1,886,676.18'
p2754
tp2755
sS'HUBB'
p2756
(S'HUBBELL INC'
p2757
g8
S'5,130,646.35'
p2758
tp2759
sS'BILL'
p2760
(S'BILL COM HOLDINGS INC'
p2761
g22
S'536,540.20'
p2762
tp2763
sS'TDG'
p2764
(S'TRANSDIGM GROUP INC'
p2765
g8
S'16,424,129.68'
p2766
tp2767
sS'MSM'
p2768
(S'MSC INDUSTRIAL INC CLASS A'
p2769
g8
S'2,402,765.04'
p2770
tp2771
sS'CDK'
p2772
(S'CDK GLOBAL INC'
p2773
g22
S'3,860,517.64'
p2774
tp2775
sS'SBUX'
p2776
(S'STARBUCKS CORP'
p2777
g45
S'65,210,313.45'
p2778
tp2779
sS'TDY'
p2780
(S'TELEDYNE TECHNOLOGIES INC'
p2781
g8
S'9,387,060.84'
p2782
tp2783
sS'CDW'
p2784
(S'CDW CORP'
p2785
g22
S'11,878,186.24'
p2786
tp2787
sS'MORN'
p2788
(S'MORNINGSTAR INC'
p2789
g83
S'2,114,699.20'
p2790
tp2791
sS'MRNA'
p2792
(S'MODERNA INC'
p2793
g58
S'10,125,098.20'
p2794
tp2795
sS'HUBS'
p2796
(S'HUBSPOT INC'
p2797
g22
S'6,254,177.82'
p2798
tp2799
sS'SAGE'
p2800
(S'SAGE THERAPEUTICS INC'
p2801
g58
S'1,414,129.10'
p2802
tp2803
sS'CMCSA'
p2804
(S'COMCAST CORP CLASS A'
p2805
g27
S'134,545,860.00'
p2806
tp2807
sS'FHN'
p2808
(S'FIRST HORIZON NATIONAL CORP'
p2809
g83
S'2,161,988.78'
p2810
tp2811
sS'MKC'
p2812
(S'MCCORMICK & CO NON-VOTING INC'
p2813
g40
S'15,681,123.36'
p2814
tp2815
sS'CVX'
p2816
(S'CHEVRON CORP'
p2817
g13
S'129,673,635.75'
p2818
tp2819
sS'QGEN'
p2820
(S'QIAGEN NV'
p2821
g58
S'7,183,891.56'
p2822
tp2823
sS'RNG'
p2824
(S'RINGCENTRAL INC CLASS A'
p2825
g22
S'14,567,394.65'
p2826
tp2827
sS'MKL'
p2828
(S'MARKEL CORP'
p2829
g83
S'9,503,485.80'
p2830
tp2831
sS'WSM'
p2832
(S'WILLIAMS SONOMA INC'
p2833
g45
S'4,801,561.50'
p2834
tp2835
sS'CVS'
p2836
(S'CVS HEALTH CORP'
p2837
g58
S'62,392,290.20'
p2838
tp2839
sS'WSO'
p2840
(S'WATSCO INC'
p2841
g8
S'4,312,239.12'
p2842
tp2843
sS'FHB'
p2844
(S'FIRST HAWAIIAN INC'
p2845
g83
S'1,711,044.66'
p2846
tp2847
sS'RCL'
p2848
(S'ROYAL CARIBBEAN CRUISES LTD'
p2849
g45
S'7,084,392.15'
p2850
tp2851
sS'NEWR'
p2852
(S'NEW RELIC INC'
p2853
g22
S'2,672,891.52'
p2854
tp2855
sS'COLM'
p2856
(S'COLUMBIA SPORTSWEAR'
p2857
g45
S'1,802,136.21'
p2858
tp2859
sS'WST'
p2860
(S'WEST PHARMACEUTICAL SERVICES INC'
p2861
g58
S'11,234,655.18'
p2862
tp2863
sS'WTFC'
p2864
(S'WINTRUST FINANCIAL CORP'
p2865
g83
S'1,903,365.20'
p2866
tp2867
sS'AYI'
p2868
(S'ACUITY BRANDS INC'
p2869
g8
S'2,928,058.98'
p2870
tp2871
sS'AIG'
p2872
(S'AMERICAN INTERNATIONAL GROUP INC'
p2873
g83
S'20,794,290.79'
p2874
tp2875
sS'MCK'
p2876
(S'MCKESSON CORP'
p2877
g58
S'17,907,873.28'
p2878
tp2879
sS'DIS'
p2880
(S'WALT DISNEY'
p2881
g27
S'149,675,468.80'
p2882
tp2883
sS'PPC'
p2884
(S'PILGRIMS PRIDE CORP'
p2885
g40
S'650,247.83'
p2886
tp2887
sS'PPG'
p2888
(S'PPG INDUSTRIES INC'
p2889
g173
S'17,955,347.32'
p2890
tp2891
sS'ALK'
p2892
(S'ALASKA AIR GROUP INC'
p2893
g8
S'3,156,192.38'
p2894
tp2895
sS'MNST'
p2896
(S'MONSTER BEVERAGE CORP'
p2897
g40
S'19,745,190.60'
p2898
tp2899
sS'TWTR'
p2900
(S'TWITTER INC'
p2901
g27
S'18,978,938.91'
p2902
tp2903
sS'NSC'
p2904
(S'NORFOLK SOUTHERN CORP'
p2905
g8
S'34,204,449.84'
p2906
tp2907
sS'BDN'
p2908
(S'BRANDYWINE REALTY TRUST REIT'
p2909
g3
S'1,460,245.75'
p2910
tp2911
sS'PPL'
p2912
(S'PPL CORP'
p2913
g92
S'15,425,740.20'
p2914
tp2915
sS'CHH'
p2916
(S'CHOICE HOTELS INTERNATIONAL INC'
p2917
g45
S'1,967,852.82'
p2918
tp2919
sS'NDAQ'
p2920
(S'NASDAQ INC'
p2921
g83
S'9,784,686.75'
p2922
tp2923
sS'FAF'
p2924
(S'FIRST AMERICAN FINANCIAL CORP'
p2925
g83
S'4,106,774.64'
p2926
tp2927
sS'GOOG'
p2928
(S'ALPHABET INC CLASS C'
p2929
g27
S'320,357,691.84'
p2930
tp2931
sS'PANW'
p2932
(S'PALO ALTO NETWORKS INC'
p2933
g22
S'15,895,241.92'
p2934
tp2935
sS'CBT'
p2936
(S'CABOT CORP'
p2937
g173
S'1,382,157.63'
p2938
tp2939
sS'LVS'
p2940
(S'LAS VEGAS SANDS CORP'
p2941
g45
S'12,489,035.99'
p2942
tp2943
sS'TDS'
p2944
(S'TELEPHONE AND DATA SYSTEMS INC'
p2945
g27
S'1,446,192.40'
p2946
tp2947
sS'LGFA'
p2948
(S'LIONS GATE ENTERTAINMENT VOTING CO'
p2949
g27
S'244,496.42'
p2950
tp2951
sS'IP'
p2952
(S'INTERNATIONAL PAPER'
p2953
g173
S'10,135,872.64'
p2954
tp2955
sS'HPQ'
p2956
(S'HP INC'
p2957
g22
S'17,365,859.46'
p2958
tp2959
sS'IR'
p2960
(S'INGERSOLL RAND INC'
p2961
g8
S'8,108,744.25'
p2962
tp2963
sS'SPOT'
p2964
(S'SPOTIFY TECHNOLOGY SA'
p2965
g27
S'17,663,054.04'
p2966
tp2967
sS'IT'
p2968
(S'GARTNER INC'
p2969
g22
S'7,779,814.40'
p2970
tp2971
sS'L'
p2972
(S'LOEWS CORP'
p2973
g83
S'6,005,108.88'
p2974
tp2975
sS'SIVB'
p2976
(S'SVB FINANCIAL GROUP'
p2977
g83
S'8,090,299.80'
p2978
tp2979
sS'IRM'
p2980
(S'IRON MOUNTAIN INC'
p2981
g3
S'5,981,844.55'
p2982
tp2983
sS'AVTR'
p2984
(S'AVANTOR INC'
p2985
g58
S'4,358,289.32'
p2986
tp2987
sS'CBRE'
p2988
(S'CBRE GROUP INC CLASS A'
p2989
g3
S'11,753,755.86'
p2990
tp2991
sS'VZ'
p2992
(S'VERIZON COMMUNICATIONS INC'
p2993
g27
S'177,813,435.60'
p2994
tp2995
sS'HE'
p2996
(S'HAWAIIAN ELECTRIC INDUSTRIES INC'
p2997
g92
S'3,018,979.72'
p2998
tp2999
sS'JCI'
p3000
(S'JOHNSON CONTROLS INTERNATIONAL PLC'
p3001
g8
S'19,452,162.18'
p3002
tp3003
sS'MTD'
p3004
(S'METTLER TOLEDO INC'
p3005
g58
S'13,712,067.85'
p3006
tp3007
sS'SATS'
p3008
(S'ECHOSTAR CORP CLASS A'
p3009
g22
S'1,044,467.82'
p3010
tp3011
sS'PWR'
p3012
(S'QUANTA SERVICES INC'
p3013
g8
S'4,031,374.62'
p3014
tp3015
sS'ARW'
p3016
(S'ARROW ELECTRONICS INC'
p3017
g22
S'3,970,546.19'
p3018
tp3019
sS'PINC'
p3020
(S'PREMIER INC CLASS A'
p3021
g58
S'1,477,187.33'
p3022
tp3023
sS'MIDD'
p3024
(S'MIDDLEBY CORP'
p3025
g8
S'3,111,072.08'
p3026
tp3027
sS'CSCO'
p3028
(S'CISCO SYSTEMS INC'
p3029
g22
S'142,396,079.10'
p3030
tp3031
sS'CDAY'
p3032
(S'CERIDIAN HCM HOLDING INC'
p3033
g22
S'5,061,239.28'
p3034
tp3035
sS'LAMR'
p3036
(S'LAMAR ADVERTISING COMPANY CLAS'
p3037
g3
S'4,261,995.10'
p3038
tp3039
sS'RJF'
p3040
(S'RAYMOND JAMES INC'
p3041
g83
S'6,651,724.98'
p3042
tp3043
sS'DXCM'
p3044
(S'DEXCOM INC'
p3045
g58
S'25,028,440.84'
p3046
tp3047
sS'ARE'
p3048
(S'ALEXANDRIA REAL ESTATE EQUITIES RE'
p3049
g3
S'14,051,881.90'
p3050
tp3051
sS'PNW'
p3052
(S'PINNACLE WEST CORP'
p3053
g92
S'6,316,333.20'
p3054
tp3055
sS'VST'
p3056
(S'VISTRA ENERGY CORP'
p3057
g92
S'6,304,042.00'
p3058
tp3059
sS'TPR'
p3060
(S'TAPESTRY INC'
p3061
g45
S'2,899,076.04'
p3062
tp3063
sS'MPWR'
p3064
(S'MONOLITHIC POWER SYSTEMS INC'
p3065
g22
S'6,866,151.00'
p3066
tp3067
sS'WDC'
p3068
(S'WESTERN DIGITAL CORP'
p3069
g22
S'9,501,010.75'
p3070
tp3071
sS'HBI'
p3072
(S'HANESBRANDS INC'
p3073
g45
S'3,124,800.00'
p3074
tp3075
sS'BA'
p3076
(S'BOEING'
p3077
g8
S'68,480,760.00'
p3078
tp3079
sS'AVLR'
p3080
(S'AVALARA INC'
p3081
g22
S'3,530,200.90'
p3082
tp3083
sS'BC'
p3084
(S'BRUNSWICK CORP'
p3085
g45
S'3,466,679.58'
p3086
tp3087
sS'EPR'
p3088
(S'EPR PROPERTIES REIT'
p3089
g3
S'2,115,155.28'
p3090
tp3091
sS'LFUS'
p3092
(S'LITTELFUSE INC'
p3093
g22
S'2,952,079.90'
p3094
tp3095
sS'BK'
p3096
(S'BANK OF NEW YORK MELLON CORP'
p3097
g83
S'23,010,987.60'
p3098
tp3099
sS'DRI'
p3100
(S'DARDEN RESTAURANTS INC'
p3101
g45
S'7,140,430.44'
p3102
tp3103
sS'CCL'
p3104
(S'CARNIVAL CORP'
p3105
g45
S'5,873,879.20'
p3106
tp3107
sS'DVN'
p3108
(S'DEVON ENERGY CORP'
p3109
g13
S'3,521,029.80'
p3110
tp3111
sS'CCI'
p3112
(S'CROWN CASTLE INTERNATIONAL REIT CO'
p3113
g3
S'50,699,284.72'
p3114
tp3115
sS'CONE'
p3116
(S'CYRUSONE REIT INC'
p3117
g3
S'5,925,199.28'
p3118
tp3119
sS'BR'
p3120
(S'BROADRIDGE FINANCIAL SOLUTIONS INC'
p3121
g22
S'10,192,895.65'
p3122
tp3123
sS'MSGS'
p3124
(S'MADISON SQUARE GARDEN SPORTS CORP'
p3125
g27
S'2,355,383.91'
p3126
tp3127
sS'TIF'
p3128
(S'TIFFANY'
p3129
g45
S'10,874,398.34'
p3130
tp3131
sS'DRE'
p3132
(S'DUKE REALTY REIT CORP'
p3133
g3
S'9,564,775.47'
p3134
tp3135
sS'NNN'
p3136
(S'NATIONAL RETAIL PROPERTIES REIT IN'
p3137
g3
S'4,462,636.56'
p3138
tp3139
sS'ALLE'
p3140
(S'ALLEGION PLC'
p3141
g8
S'7,059,740.28'
p3142
tp3143
sS'FWONK'
p3144
(S'LIBERTY MEDIA FORMULA ONE CORP SER'
p3145
g27
S'5,193,100.15'
p3146
tp3147
sS'OHI'
p3148
(S'OMEGA HEALTHCARE INVESTORS REIT IN'
p3149
g3
S'5,045,026.41'
p3150
tp3151
sS'POST'
p3152
(S'POST HOLDINGS INC'
p3153
g40
S'4,267,172.24'
p3154
tp3155
sS'VVV'
p3156
(S'VALVOLINE INC'
p3157
g173
S'2,717,759.58'
p3158
tp3159
sS'FWONA'
p3160
(g3145
g27
S'498,867.25'
p3161
tp3162
sS'FLIR'
p3163
(S'FLIR SYSTEMS INC'
p3164
g22
S'4,305,790.08'
p3165
tp3166
sS'CGNX'
p3167
(S'COGNEX CORP'
p3168
g22
S'6,802,368.78'
p3169
tp3170
sS'MYL'
p3171
(S'MYLAN NV'
p3172
g58
S'6,304,318.40'
p3173
tp3174
sS'LYB'
p3175
(S'LYONDELLBASELL INDUSTRIES NV CLASS'
p3176
g173
S'12,805,751.70'
p3177
tp3178
sS'KHC'
p3179
(S'KRAFT HEINZ'
p3180
g40
S'14,766,629.74'
p3181
tp3182
sS'ALLY'
p3183
(S'ALLY FINANCIAL INC'
p3184
g83
S'5,404,860.50'
p3185
tp3186
sS'HSIC'
p3187
(S'HENRY SCHEIN INC'
p3188
g58
S'6,121,779.40'
p3189
tp3190
sS'SBNY'
p3191
(S'SIGNATURE BANK'
p3192
g83
S'4,166,324.40'
p3193
tp3194
sS'D'
p3195
(S'DOMINION ENERGY INC'
p3196
g92
S'52,543,046.38'
p3197
tp3198
sS'STLD'
p3199
(S'STEEL DYNAMICS INC'
p3200
g173
S'3,896,077.50'
p3201
tp3202
sS'NAVI'
p3203
(S'NAVIENT CORP'
p3204
g83
S'1,051,949.04'
p3205
tp3206
sS'DVA'
p3207
(S'DAVITA INC'
p3208
g58
S'5,301,324.60'
p3209
tp3210
sS'SVC'
p3211
(S'SERVICE PROPERTIES TRUST'
p3212
g3
S'1,143,854.70'
p3213
tp3214
sS'NKTR'
p3215
(S'NEKTAR THERAPEUTICS'
p3216
g58
S'2,561,917.52'
p3217
tp3218
sS'WMT'
p3219
(S'WALMART INC'
p3220
g40
S'127,009,225.53'
p3221
tp3222
sS'SRPT'
p3223
(S'SAREPTA THERAPEUTICS INC'
p3224
g58
S'8,329,574.40'
p3225
tp3226
sS'T'
p3227
(S'AT&T INC'
p3228
g27
S'167,644,583.05'
p3229
tp3230
sS'WMB'
p3231
(S'WILLIAMS INC'
p3232
g13
S'16,763,878.21'
p3233
tp3234
sS'LOGM'
p3235
(S'LOGMEIN INC'
p3236
g22
S'3,189,836.76'
p3237
tp3238
sS'PE'
p3239
(S'PARSLEY ENERGY INC CLASS A'
p3240
g13
S'2,369,192.40'
p3241
tp3242
sS'NXST'
p3243
(S'NEXSTAR MEDIA GROUP INC CLASS A'
p3244
g27
S'2,978,406.00'
p3245
tp3246
sS'CXP'
p3247
(S'COLUMBIA PROPERTY REIT INC TRUST'
p3248
g3
S'1,049,625.25'
p3249
tp3250
sS'ON'
p3251
(S'ON SEMICONDUCTOR CORP'
p3252
g22
S'5,572,146.72'
p3253
tp3254
sS'VRSN'
p3255
(S'VERISIGN INC'
p3256
g22
S'16,081,070.72'
p3257
tp3258
sS'OI'
p3259
(S'O I GLASS INC'
p3260
g173
S'947,231.20'
p3261
tp3262
sS'VRSK'
p3263
(S'VERISK ANALYTICS INC'
p3264
g8
S'19,751,216.76'
p3265
tp3266
sS'CINF'
p3267
(S'CINCINNATI FINANCIAL CORP'
p3268
g83
S'6,791,009.54'
p3269
tp3270
sS'LECO'
p3271
(S'LINCOLN ELECTRIC HOLDINGS INC'
p3272
g8
S'3,573,522.74'
p3273
tp3274
sS'OC'
p3275
(S'OWENS CORNING'
p3276
g8
S'4,155,353.04'
p3277
tp3278
sS'DOX'
p3279
(S'AMDOCS LTD'
p3280
g22
S'6,275,254.80'
p3281
tp3282
sS'NTRS'
p3283
(S'NORTHERN TRUST CORP'
p3284
g83
S'11,924,162.40'
p3285
tp3286
sS'BOKF'
p3287
(S'BOK FINANCIAL CORP'
p3288
g83
S'1,439,600.03'
p3289
tp3290
sS'PRAH'
p3291
(S'PRA HEALTH SCIENCES INC'
p3292
g58
S'4,602,930.70'
p3293
tp3294
sS'TPX'
p3295
(S'TEMPUR SEALY INTERNATIONAL INC'
p3296
g45
S'2,337,314.76'
p3297
tp3298
sS'TWOU'
p3299
(S'2U INC'
p3300
g22
S'1,336,815.25'
p3301
tp3302
sS'CXO'
p3303
(S'CONCHO RESOURCES INC'
p3304
g13
S'8,759,104.34'
p3305
tp3306
sS'COUP'
p3307
(S'COUPA SOFTWARE INC'
p3308
g22
S'10,559,556.65'
p3309
tp3310
sS'LENB'
p3311
(S'LENNAR CORP CLASS B'
p3312
g45
S'495,275.70'
p3313
tp3314
sS'BURL'
p3315
(S'BURLINGTON STORES INC'
p3316
g45
S'10,020,281.04'
p3317
tp3318
sS'FLS'
p3319
(S'FLOWSERVE CORP'
p3320
g8
S'2,744,010.00'
p3321
tp3322
sS'FLR'
p3323
(S'FLUOR CORP'
p3324
g8
S'1,225,233.69'
p3325
tp3326
sS'FLT'
p3327
(S'FLEETCOR TECHNOLOGIES INC'
p3328
g22
S'16,582,168.56'
p3329
tp3330
sS'REGN'
p3331
(S'REGENERON PHARMACEUTICALS INC'
p3332
g58
S'42,483,553.92'
p3333
tp3334
sS'SMG'
p3335
(S'SCOTTS MIRACLE GRO'
p3336
g173
S'4,015,517.24'
p3337
tp3338
sS'FLO'
p3339
(S'FLOWERS FOODS INC'
p3340
g40
S'3,277,865.36'
p3341
tp3342
sS'SWCH'
p3343
(S'SWITCH INC CLASS A'
p3344
g22
S'747,950.28'
p3345
tp3346
sS'CVET'
p3347
(S'COVETRUS INC'
p3348
g58
S'1,119,931.56'
p3349
tp3350
sS'HD'
p3351
(S'HOME DEPOT INC'
p3352
g45
S'198,711,966.53'
p3353
tp3354
sS'LKQ'
p3355
(S'LKQ CORP'
p3356
g45
S'6,179,658.40'
p3357
tp3358
sS'SERV'
p3359
(S'SERVICEMASTER GLOBAL HOLDINGS INC'
p3360
g45
S'3,615,048.00'
p3361
tp3362
sS'AMH'
p3363
(S'AMERICAN HOMES RENT REIT CLASS A'
p3364
g3
S'5,057,152.92'
p3365
tp3366
sS'LLY'
p3367
(S'ELI LILLY'
p3368
g58
S'93,269,035.36'
p3369
tp3370
sS'ROK'
p3371
(S'ROCKWELL AUTOMATION INC'
p3372
g8
S'18,043,849.96'
p3373
tp3374
sS'SCI'
p3375
(S'SERVICE'
p3376
g45
S'5,225,838.75'
p3377
tp3378
sS'INTC'
p3379
(S'INTEL CORPORATION CORP'
p3380
g22
S'194,491,794.30'
p3381
tp3382
sS'IGT'
p3383
(S'INTERNATIONAL GAME TECHNOLOGY PLC'
p3384
g45
S'751,783.20'
p3385
tp3386
sS'KAR'
p3387
(S'KAR AUCTION SERVICES INC'
p3388
g8
S'1,268,023.37'
p3389
tp3390
sS'FL'
p3391
(S'FOOT LOCKER INC'
p3392
g45
S'2,281,285.23'
p3393
tp3394
sS'HGV'
p3395
(S'HILTON GRAND VACATIONS INC'
p3396
g45
S'1,380,770.80'
p3397
tp3398
sS'AME'
p3399
(S'AMETEK INC'
p3400
g8
S'15,196,053.54'
p3401
tp3402
sS'AMD'
p3403
(S'ADVANCED MICRO DEVICES INC'
p3404
g22
S'41,438,372.76'
p3405
tp3406
sS'AMG'
p3407
(S'AFFILIATED MANAGERS GROUP INC'
p3408
g83
S'2,647,677.84'
p3409
tp3410
sS'EPAM'
p3411
(S'EPAM SYSTEMS INC'
p3412
g22
S'9,058,725.15'
p3413
tp3414
sS'OSK'
p3415
(S'OSHKOSH CORP'
p3416
g8
S'3,695,383.66'
p3417
tp3418
sS'SFM'
p3419
(S'SPROUTS FARMERS MARKET INC'
p3420
g40
S'2,170,257.88'
p3421
tp3422
sS'INVH'
p3423
(S'INVITATION HOMES INC'
p3424
g3
S'10,752,667.52'
p3425
tp3426
sS'ROP'
p3427
(S'ROPER TECHNOLOGIES INC'
p3428
g8
S'30,568,408.30'
p3429
tp3430
sS'AMP'
p3431
(S'AMERIPRISE FINANCE INC'
p3432
g83
S'13,271,967.80'
p3433
tp3434
sS'PCTY'
p3435
(S'PAYLOCITY HOLDING CORP'
p3436
g22
S'3,237,679.92'
p3437
tp3438
sS'TMO'
p3439
(S'THERMO FISHER SCIENTIFIC INC'
p3440
g58
S'102,089,690.04'
p3441
tp3442
sS'AMT'
p3443
(S'AMERICAN TOWER REIT CORP'
p3444
g3
S'84,068,223.54'
p3445
tp3446
sS'LRCX'
p3447
(S'LAM RESEARCH CORP'
p3448
g22
S'31,024,088.21'
p3449
tp3450
sS'WRB'
p3451
(S'WR BERKLEY CORP'
p3452
g83
S'6,128,170.70'
p3453
tp3454
sS'MHK'
p3455
(S'MOHAWK INDUSTRIES INC'
p3456
g45
S'4,352,335.47'
p3457
tp3458
sS'TRN'
p3459
(S'TRINITY INDUSTRIES INC'
p3460
g8
S'1,692,620.90'
p3461
tp3462
sS'JAZZ'
p3463
(S'JAZZ PHARMACEUTICALS PLC'
p3464
g58
S'4,528,404.98'
p3465
tp3466
sS'BERY'
p3467
(S'BERRY GLOBAL GROUP INC'
p3468
g173
S'4,327,222.17'
p3469
tp3470
sS'O'
p3471
(S'REALTY INCOME REIT CORP'
p3472
g3
S'14,227,135.52'
p3473
tp3474
sS'AL'
p3475
(S'AIR LEASE CORP CLASS A'
p3476
g8
S'2,491,699.90'
p3477
tp3478
sS'GDDY'
p3479
(S'GODADDY INC CLASS A'
p3480
g22
S'9,930,446.37'
p3481
tp3482
sS'PBF'
p3483
(S'PBF ENERGY INC CLASS A'
p3484
g13
S'1,042,639.08'
p3485
tp3486
sS'WDAY'
p3487
(S'WORKDAY INC CLASS A'
p3488
g22
S'21,857,009.50'
p3489
tp3490
sS'TRU'
p3491
(S'TRANSUNION'
p3492
g8
S'12,417,392.64'
p3493
tp3494
sS'UPS'
p3495
(S'UNITED PARCEL SERVICE INC CLASS B'
p3496
g8
S'53,391,465.99'
p3497
tp3498
sS'APLE'
p3499
(S'APPLE HOSPITALITY REIT INC'
p3500
g3
S'1,570,637.60'
p3501
tp3502
sS'TRV'
p3503
(S'TRAVELERS COMPANIES INC'
p3504
g83
S'21,520,436.85'
p3505
tp3506
sS'MSGE'
p3507
(S'MADISON SQUARE GARDEN ENTERTAINMEN'
p3508
g27
S'1,061,560.50'
p3509
tp3510
sS'MPC'
p3511
(S'MARATHON PETROLEUM CORP'
p3512
g13
S'17,370,771.76'
p3513
tp3514
sS'HTA'
p3515
(S'HEALTHCARE TRUST OF AMERICA REIT I'
p3516
g3
S'4,215,797.40'
p3517
tp3518
sS'SLM'
p3519
(S'SLM CORP'
p3520
g83
S'2,524,586.68'
p3521
tp3522
sS'AVT'
p3523
(S'AVNET INC'
p3524
g22
S'1,898,591.28'
p3525
tp3526
sS'MDLA'
p3527
(S'MEDALLIA INC'
p3528
g22
S'1,306,218.20'
p3529
tp3530
sS'XEC'
p3531
(S'CIMAREX ENERGY'
p3532
g13
S'2,232,512.96'
p3533
tp3534
sS'MDLZ'
p3535
(S'MONDELEZ INTERNATIONAL INC CLASS A'
p3536
g40
S'54,651,732.10'
p3537
tp3538
sS'UNVR'
p3539
(S'UNIVAR SOLUTIONS INC'
p3540
g8
S'2,008,044.61'
p3541
tp3542
sS'UI'
p3543
(S'UBIQUITI INC'
p3544
g22
S'1,007,223.36'
p3545
tp3546
sS'UA'
p3547
(S'UNDER ARMOUR INC CLASS C'
p3548
g45
S'1,235,050.68'
p3549
tp3550
sS'AVB'
p3551
(S'AVALONBAY COMMUNITIES REIT INC'
p3552
g3
S'17,097,842.49'
p3553
tp3554
sS'PLAN'
p3555
(S'ANAPLAN INC'
p3556
g22
S'2,815,668.05'
p3557
tp3558
sS'ACC'
p3559
(S'AMERICAN CAMPUS COMMUNITIES REIT I'
p3560
g3
S'3,639,262.75'
p3561
tp3562
sS'NEM'
p3563
(S'NEWMONT'
p3564
g173
S'34,846,960.92'
p3565
tp3566
sS'BLUE'
p3567
(S'BLUEBIRD BIO INC'
p3568
g58
S'3,075,837.60'
p3569
tp3570
sS'CABO'
p3571
(S'CABLE ONE INC'
p3572
g27
S'5,634,871.23'
p3573
tp3574
sS'TRIP'
p3575
(S'TRIPADVISOR INC'
p3576
g27
S'1,475,784.00'
p3577
tp3578
sS'ESTC'
p3579
(S'ELASTIC NV'
p3580
g22
S'3,249,902.60'
p3581
tp3582
sS'AXTA'
p3583
(S'AXALTA COATING SYSTEMS LTD'
p3584
g173
S'3,513,034.70'
p3585
tp3586
sS'NEE'
p3587
(S'NEXTERA ENERGY INC'
p3588
g92
S'92,282,904.62'
p3589
tp3590
sS'ACN'
p3591
(S'ACCENTURE PLC CLASS A'
p3592
g22
S'95,051,230.05'
p3593
tp3594
sS'SUI'
p3595
(S'SUN COMMUNITIES REIT INC'
p3596
g3
S'9,280,929.73'
p3597
tp3598
sS'JBLU'
p3599
(S'JETBLUE AIRWAYS CORP'
p3600
g8
S'2,347,731.87'
p3601
tp3602
sS'HFC'
p3603
(S'HOLLYFRONTIER CORP'
p3604
g13
S'3,338,162.16'
p3605
tp3606
sS'NEU'
p3607
(S'NEWMARKET CORP'
p3608
g173
S'1,987,238.52'
p3609
tp3610
sS'IDA'
p3611
(S'IDACORP INC'
p3612
g92
S'3,272,616.00'
p3613
tp3614
sS'NI'
p3615
(S'NISOURCE INC'
p3616
g92
S'6,465,045.60'
p3617
tp3618
sS'AZPN'
p3619
(S'ASPEN TECHNOLOGY INC'
p3620
g22
S'4,978,608.00'
p3621
tp3622
sS'SNV'
p3623
(S'SYNOVUS FINANCIAL CORP'
p3624
g83
S'2,157,179.64'
p3625
tp3626
sS'RRC'
p3627
(S'RANGE RESOURCES CORP'
p3628
g13
S'972,484.74'
p3629
tp3630
sS'BKI'
p3631
(S'BLACK KNIGHT INC'
p3632
g22
S'8,180,852.90'
p3633
tp3634
sS'FAST'
p3635
(S'FASTENAL'
p3636
g8
S'17,585,049.92'
p3637
tp3638
sS'RGLD'
p3639
(S'ROYAL GOLD INC'
p3640
g173
S'6,015,658.08'
p3641
tp3642
sS'BKU'
p3643
(S'BANKUNITED INC'
p3644
g83
S'1,248,844.80'
p3645
tp3646
sS'TECH'
p3647
(S'BIO TECHNE CORP'
p3648
g58
S'6,955,700.17'
p3649
tp3650
sS'POOL'
p3651
(S'POOL CORP'
p3652
g45
S'7,309,599.87'
p3653
tp3654
sS'BKR'
p3655
(S'BAKER HUGHES CLASS A'
p3656
g13
S'7,665,123.93'
p3657
tp3658
sS'NBL'
p3659
(S'NOBLE ENERGY INC'
p3660
g13
S'3,462,555.52'
p3661
tp3662
sS'TER'
p3663
(S'TERADYNE INC'
p3664
g22
S'9,051,925.54'
p3665
tp3666
sS'HEIA'
p3667
(S'HEICO CORP CLASS A'
p3668
g8
S'5,145,696.60'
p3669
tp3670
sS'HP'
p3671
(S'HELMERICH & PAYNE INC'
p3672
g13
S'1,578,031.08'
p3673
tp3674
sS'FAM0'
p3675
(S'S&P MID 400 EMINI JUN 20'
p3676
g1266
S'0.00'
p3677
tp3678
sS'ADT'
p3679
(S'ADT INC'
p3680
g8
S'830,708.20'
p3681
tp3682
sS'ADS'
p3683
(S'ALLIANCE DATA SYSTEMS CORP'
p3684
g22
S'1,442,750.53'
p3685
tp3686
sS'ADP'
p3687
(S'AUTOMATIC DATA PROCESSING INC'
p3688
g22
S'47,342,273.12'
p3689
tp3690
sS'GILD'
p3691
(S'GILEAD SCIENCES INC'
p3692
g58
S'70,705,205.28'
p3693
tp3694
sS'J'
p3695
(S'JACOBS ENGINEERING GROUP INC'
p3696
g8
S'7,830,063.21'
p3697
tp3698
sS'LULU'
p3699
(S'LULULEMON ATHLETICA INC'
p3700
g45
S'27,705,842.28'
p3701
tp3702
sS'CUZ'
p3703
(S'COUSINS PROPERTIES REIT INC'
p3704
g3
S'3,461,098.10'
p3705
tp3706
sS'LPLA'
p3707
(S'LPL FINANCIAL HOLDINGS INC'
p3708
g83
S'4,635,318.09'
p3709
tp3710
sS'SJM'
p3711
(S'JM SMUCKER'
p3712
g40
S'8,801,237.16'
p3713
tp3714
sS'JPM'
p3715
(S'JPMORGAN CHASE & CO'
p3716
g83
S'230,731,337.35'
p3717
tp3718
sS'ADM'
p3719
(S'ARCHER DANIELS MIDLAND'
p3720
g40
S'16,254,653.00'
p3721
tp3722
sS'ADI'
p3723
(S'ANALOG DEVICES INC'
p3724
g22
S'32,390,558.10'
p3725
tp3726
sS'LEA'
p3727
(S'LEAR CORP'
p3728
g45
S'5,054,318.58'
p3729
tp3730
sS'HIW'
p3731
(S'HIGHWOODS PROPERTIES REIT INC'
p3732
g3
S'3,017,175.42'
p3733
tp3734
sS'VIAC'
p3735
(S'VIACOMCBS INC CLASS B'
p3736
g27
S'9,738,541.75'
p3737
tp3738
sS'XEL'
p3739
(S'XCEL ENERGY INC'
p3740
g92
S'25,991,715.48'
p3741
tp3742
sS'CASY'
p3743
(S'CASEYS GENERAL STORES INC'
p3744
g40
S'4,096,964.32'
p3745
tp3746
sS'OZK'
p3747
(S'BANK OZK'
p3748
g83
S'2,125,551.70'
p3749
tp3750
sS'LEN'
p3751
(S'LENNAR A CORP'
p3752
g45
S'12,030,218.90'
p3753
tp3754
sS'EBAY'
p3755
(S'EBAY INC'
p3756
g45
S'27,476,811.00'
p3757
tp3758
sS'BRO'
p3759
(S'BROWN & BROWN INC'
p3760
g83
S'7,282,362.88'
p3761
tp3762
sS'MET'
p3763
(S'METLIFE INC'
p3764
g83
S'21,278,823.90'
p3765
tp3766
sS'BMRN'
p3767
(S'BIOMARIN PHARMACEUTICAL INC'
p3768
g58
S'13,999,912.56'
p3769
tp3770
sS'OUT'
p3771
(S'OUTFRONT MEDIA INC'
p3772
g3
S'1,646,318.20'
p3773
tp3774
sS'PEAK'
p3775
(S'HEALTHPEAK PROPERTIES INC'
p3776
g3
S'10,101,612.80'
p3777
tp3778
sS'USD'
p3779
(S'USD CASH'
p3780
g1266
S'20,742,456.22'
p3781
tp3782
sS'USB'
p3783
(S'US BANCORP'
p3784
g83
S'38,353,141.32'
p3785
tp3786
sS'AZO'
p3787
(S'AUTOZONE INC'
p3788
g45
S'19,781,767.80'
p3789
tp3790
sS'USM'
p3791
(S'UNITED STATES CELLULAR CORP'
p3792
g27
S'325,464.58'
p3793
tp3794
sS'IQV'
p3795
(S'IQVIA HOLDINGS INC'
p3796
g58
S'18,651,516.48'
p3797
tp3798
sS'TWO'
p3799
(S'TWO HARBORS INVESTMENT REIT CORP'
p3800
g83
S'1,021,747.10'
p3801
tp3802
sS'NTNX'
p3803
(S'NUTANIX INC CLASS A'
p3804
g22
S'2,703,362.97'
p3805
tp3806
sS'REG'
p3807
(S'REGENCY CENTERS REIT CORP'
p3808
g3
S'5,713,427.20'
p3809
tp3810
sS'ELAN'
p3811
(S'ELANCO ANIMAL HEALTH INC'
p3812
g58
S'6,477,184.67'
p3813
tp3814
sS'WAL'
p3815
(S'WESTERN ALLIANCE'
p3816
g83
S'2,580,015.16'
p3817
tp3818
sS'PACW'
p3819
(S'PACWEST BANCORP'
p3820
g83
S'1,569,770.82'
p3821
tp3822
sS'MXIM'
p3823
(S'MAXIM INTEGRATED PRODUCTS INC'
p3824
g22
S'11,581,810.56'
p3825
tp3826
sS'MSI'
p3827
(S'MOTOROLA SOLUTIONS INC'
p3828
g22
S'17,764,291.44'
p3829
tp3830
sS'EWBC'
p3831
(S'EAST WEST BANCORP INC'
p3832
g83
S'3,983,334.25'
p3833
tp3834
sS'DISH'
p3835
(S'DISH NETWORK CORP CLASS A'
p3836
g27
S'6,095,035.35'
p3837
tp3838
sS'LDOS'
p3839
(S'LEIDOS HOLDINGS INC'
p3840
g22
S'10,199,499.03'
p3841
tp3842
sS'PCAR'
p3843
(S'PACCAR INC'
p3844
g8
S'18,623,229.62'
p3845
tp3846
sS'TXN'
p3847
(S'TEXAS INSTRUMENT INC'
p3848
g22
S'88,912,848.69'
p3849
tp3850
sS'VEEV'
p3851
(S'VEEVA SYSTEMS INC CLASS A'
p3852
g58
S'21,184,038.45'
p3853
tp3854
sS'SEB'
p3855
(S'SEABOARD CORP'
p3856
g40
S'656,031.48'
p3857
tp3858
sS'DAL'
p3859
(S'DELTA AIR LINES INC'
p3860
g8
S'11,812,987.20'
p3861
tp3862
sS'TT'
p3863
(S'TRANE TECHNOLOGIES PLC'
p3864
g8
S'16,162,998.73'
p3865
tp3866
sS'CL'
p3867
(S'COLGATE-PALMOLIVE'
p3868
g40
S'46,755,052.40'
p3869
tp3870
sS'WELL'
p3871
(S'WELLTOWER INC'
p3872
g3
S'16,043,390.62'
p3873
tp3874
sS'EAF'
p3875
(S'GRAFTECH INTERNATIONAL LTD'
p3876
g8
S'345,478.77'
p3877
tp3878
sS'ALSN'
p3879
(S'ALLISON TRANSMISSION HOLDINGS INC'
p3880
g8
S'3,011,681.97'
p3881
tp3882
sS'ORCL'
p3883
(S'ORACLE CORP'
p3884
g22
S'78,361,042.48'
p3885
tp3886
sS'BPOP'
p3887
(S'POPULAR INC'
p3888
g83
S'2,728,047.00'
p3889
tp3890
sS'MCY'
p3891
(S'MERCURY GENERAL CORP'
p3892
g83
S'784,000.56'
p3893
tp3894
sS'TXT'
p3895
(S'TEXTRON INC'
p3896
g8
S'5,490,841.48'
p3897
tp3898
sS'PXD'
p3899
(S'PIONEER NATURAL RESOURCE'
p3900
g13
S'12,182,921.60'
p3901
tp3902
sS'AA'
p3903
(S'ALCOA CORP'
p3904
g173
S'1,449,640.82'
p3905
tp3906
sS'HOG'
p3907
(S'HARLEY DAVIDSON INC'
p3908
g45
S'2,673,665.28'
p3909
tp3910
sS'CUBE'
p3911
(S'CUBESMART REIT'
p3912
g3
S'3,884,637.40'
p3913
tp3914
sS'ESS'
p3915
(S'ESSEX PROPERTY TRUST REIT INC'
p3916
g3
S'12,204,587.46'
p3917
tp3918
sS'PKI'
p3919
(S'PERKINELMER INC'
p3920
g58
S'8,092,653.03'
p3921
tp3922
sS'CNP'
p3923
(S'CENTERPOINT ENERGY INC'
p3924
g92
S'6,834,359.77'
p3925
tp3926
sS'HON'
p3927
(S'HONEYWELL INTERNATIONAL INC'
p3928
g8
S'78,498,400.64'
p3929
tp3930
sS'AM'
p3931
(S'ANTERO MIDSTREAM CORP'
p3932
g13
S'1,038,549.00'
p3933
tp3934
sS'DELL'
p3935
(S'DELL TECHNOLOGIES INC CLASS C'
p3936
g22
S'5,449,632.30'
p3937
tp3938
sS'ICE'
p3939
(S'INTERCONTINENTAL EXCHANGE INC'
p3940
g83
S'38,484,317.04'
p3941
tp3942
sS'CF'
p3943
(S'CF INDUSTRIES HOLDINGS INC'
p3944
g173
S'4,723,495.98'
p3945
tp3946
sS'ABBV'
p3947
(S'ABBVIE INC'
p3948
g58
S'123,772,971.42'
p3949
tp3950
sS'AR'
p3951
(S'ANTERO RESOURCES CORP'
p3952
g13
S'577,193.76'
p3953
tp3954
sS'CNC'
p3955
(S'CENTENE CORP'
p3956
g58
S'26,450,765.44'
p3957
tp3958
sS'BYND'
p3959
(S'BEYOND MEAT INC'
p3960
g40
S'5,213,861.81'
p3961
tp3962
sS'ROL'
p3963
(S'ROLLINS INC'
p3964
g8
S'4,485,189.42'
p3965
tp3966
sS'TROW'
p3967
(S'T ROWE PRICE GROUP INC'
p3968
g83
S'20,865,059.20'
p3969
tp3970
sS'ISRG'
p3971
(S'INTUITIVE SURGICAL INC'
p3972
g58
S'47,748,862.80'
p3973
tp3974
sS'ESI'
p3975
(S'ELEMENT SOLUTIONS INC'
p3976
g173
S'1,638,650.78'
p3977
tp3978
sS'PFE'
p3979
(S'PFIZER INC'
p3980
g58
S'141,004,854.00'
p3981
tp3982
sS'EQIX'
p3983
(S'EQUINIX REIT INC'
p3984
g3
S'43,851,980.40'
p3985
tp3986
sS'PFG'
p3987
(S'PRINCIPAL FINANCIAL GROUP INC'
p3988
g83
S'8,190,385.20'
p3989
tp3990
sS'NWS'
p3991
(S'NEWS CORP CLASS B'
p3992
g27
S'1,154,650.64'
p3993
tp3994
sS'HHC'
p3995
(S'HOWARD HUGHES CORP'
p3996
g3
S'1,620,398.20'
p3997
tp3998
sS'SPGI'
p3999
(S'S&P GLOBAL INC'
p4000
g83
S'57,465,576.98'
p4001
tp4002
sS'AMTD'
p4003
(S'TD AMERITRADE HOLDING CORP'
p4004
g83
S'7,994,027.21'
p4005
tp4006
sS'DXC'
p4007
(S'DXC TECHNOLOGY'
p4008
g22
S'2,785,814.01'
p4009
tp4010
sS'ESM0'
p4011
(S'S&P500 EMINI JUN 20'
p4012
g1266
g3677
tp4013
s.