(dp0
S'ETR'
p1
(S'ENTERGY CORP'
p2
S'Utilities'
p3
S'17,350,710.00'
p4
tp5
sS'AEP'
p6
(S'AMERICAN ELECTRIC POWER INC'
p7
g3
S'36,100,719.07'
p8
tp9
sS'AES'
p10
(S'AES CORP'
p11
g3
S'7,975,067.52'
p12
tp13
sS'USD'
p14
(S'USD CASH'
p15
S'Cash and/or Derivatives'
p16
S'-3,696,485.43'
p17
tp18
sS'EXC'
p19
(S'EXELON CORP'
p20
g3
S'33,190,604.80'
p21
tp22
sS'ATO'
p23
(S'ATMOS ENERGY CORP'
p24
g3
S'10,821,570.05'
p25
tp26
sS'NEE'
p27
(S'NEXTERA ENERGY INC'
p28
g3
S'108,748,804.45'
p29
tp30
sS'NFG'
p31
(S'NATIONAL FUEL GAS'
p32
g3
S'3,202,015.50'
p33
tp34
sS'DTE'
p35
(S'DTE ENERGY'
p36
g3
S'18,497,456.46'
p37
tp38
sS'XTSLA'
p39
(S'BLK CSH FND TREASURY SL AGENCY'
p40
g16
S'6,702,000.00'
p41
tp42
sS'SWX'
p43
(S'SOUTHWEST GAS HOLDINGS INC'
p44
g3
S'3,349,814.64'
p45
tp46
sS'AEE'
p47
(S'AMEREN CORP'
p48
g3
S'15,933,954.00'
p49
tp50
sS'FE'
p51
(S'FIRSTENERGY CORP'
p52
g3
S'19,563,372.77'
p53
tp54
sS'PEG'
p55
(S'PUBLIC SERVICE ENTERPRISE GROUP IN'
p56
g3
S'22,767,945.18'
p57
tp58
sS'CMS'
p59
(S'CMS ENERGY CORP'
p60
g3
S'14,975,674.88'
p61
tp62
sS'AGR'
p63
(S'AVANGRID INC'
p64
g3
S'2,074,565.22'
p65
tp66
sS'IDA'
p67
(S'IDACORP INC'
p68
g3
S'3,944,052.64'
p69
tp70
sS'NI'
p71
(S'NISOURCE INC'
p72
g3
S'7,922,758.83'
p73
tp74
sS'UGI'
p75
(S'UGI CORP'
p76
g3
S'6,071,422.50'
p77
tp78
sS'EE'
p79
(S'EL PASO ELECTRIC'
p80
g3
S'2,428,480.30'
p81
tp82
sS'NWE'
p83
(S'NORTHWESTERN CORP'
p84
g3
S'2,511,908.19'
p85
tp86
sS'LNT'
p87
(S'ALLIANT ENERGY CORP'
p88
g3
S'10,532,869.75'
p89
tp90
sS'POR'
p91
(S'PORTLAND GENERAL ELECTRIC'
p92
g3
S'3,534,690.00'
p93
tp94
sS'PPL'
p95
(S'PPL CORP'
p96
g3
S'18,446,856.96'
p97
tp98
sS'NJR'
p99
(S'NEW JERSEY RESOURCES CORP'
p100
g3
S'2,701,644.00'
p101
tp102
sS'AWK'
p103
(S'AMERICAN WATER WORKS INC'
p104
g3
S'20,870,771.92'
p105
tp106
sS'EIX'
p107
(S'EDISON INTERNATIONAL'
p108
g3
S'18,859,102.60'
p109
tp110
sS'PNM'
p111
(S'PNM RESOURCES INC'
p112
g3
S'2,742,392.88'
p113
tp114
sS'HE'
p115
(S'HAWAIIAN ELECTRIC INDUSTRIES INC'
p116
g3
S'3,519,025.87'
p117
tp118
sS'MDU'
p119
(S'MDU RESOURCES GROUP INC'
p120
g3
S'3,841,737.90'
p121
tp122
sS'WEC'
p123
(S'WEC ENERGY GROUP INC'
p124
g3
S'25,334,589.24'
p125
tp126
sS'DUK'
p127
(S'DUKE ENERGY CORP'
p128
g3
S'55,888,160.85'
p129
tp130
sS'D'
p131
(S'DOMINION ENERGY INC'
p132
g3
S'62,186,607.75'
p133
tp134
sS'CNP'
p135
(S'CENTERPOINT ENERGY INC'
p136
g3
S'8,237,315.00'
p137
tp138
sS'SRE'
p139
(S'SEMPRA ENERGY'
p140
g3
S'31,383,763.92'
p141
tp142
sS'EVRG'
p143
(S'EVERGY INC'
p144
g3
S'12,335,950.88'
p145
tp146
sS'ED'
p147
(S'CONSOLIDATED EDISON INC'
p148
g3
S'22,245,673.88'
p149
tp150
sS'SJI'
p151
(S'S JERSEY INDS INC'
p152
g3
S'2,076,887.00'
p153
tp154
sS'WFFUT'
p155
(S'CASH COLLATERAL USD WFFUT'
p156
g16
S'338,000.00'
p157
tp158
sS'IXSU0'
p159
(S'E-MINI UTILITIES SELECT SECTOR SEP'
p160
g16
S'0.00'
p161
tp162
sS'ES'
p163
(S'EVERSOURCE ENERGY'
p164
g3
S'24,515,850.00'
p165
tp166
sS'WTRG'
p167
(S'ESSENTIAL UTILITIES INC'
p168
g3
S'8,411,181.20'
p169
tp170
sS'VST'
p171
(S'VISTRA ENERGY CORP'
p172
g3
S'8,131,805.91'
p173
tp174
sS'BKH'
p175
(S'BLACK HILLS CORP'
p176
g3
S'3,106,121.85'
p177
tp178
sS'XEL'
p179
(S'XCEL ENERGY INC'
p180
g3
S'30,235,449.94'
p181
tp182
sS'SR'
p183
(S'SPIRE INC'
p184
g3
S'3,035,862.69'
p185
tp186
sS'ALE'
p187
(S'ALLETE INC'
p188
g3
S'2,600,395.80'
p189
tp190
sS'NRG'
p191
(S'NRG ENERGY INC'
p192
g3
S'7,562,478.99'
p193
tp194
sS'PNW'
p195
(S'PINNACLE WEST CORP'
p196
g3
S'7,701,178.80'
p197
tp198
sS'SO'
p199
(S'SOUTHERN'
p200
g3
S'52,594,764.61'
p201
tp202
sS'OGS'
p203
(S'ONE GAS INC'
p204
g3
S'3,598,833.60'
p205
tp206
sS'AVA'
p207
(S'AVISTA CORP'
p208
g3
S'2,202,547.50'
p209
tp210
s.