(dp0
S'NTNX'
p1
(S'NUTANIX INC CLASS A'
p2
S'Information Technology'
p3
S'2,575,466.67'
p4
tp5
sS'WDC'
p6
(S'WESTERN DIGITAL CORP'
p7
g3
S'10,480,439.20'
p8
tp9
sS'GOOGL'
p10
(S'ALPHABET INC CLASS A'
p11
S'Communication'
p12
S'109,087,446.60'
p13
tp14
sS'ENTG'
p15
(S'ENTEGRIS INC'
p16
g3
S'6,518,202.24'
p17
tp18
sS'GLIBA'
p19
(S'GCI LIBERTY INC CLASS A'
p20
g12
S'5,281,888.80'
p21
tp22
sS'AAPL'
p23
(S'APPLE INC'
p24
g3
S'961,473,106.10'
p25
tp26
sS'SATS'
p27
(S'ECHOSTAR CORP CLASS A'
p28
g3
S'1,130,338.00'
p29
tp30
sS'QRVO'
p31
(S'QORVO INC'
p32
g3
S'10,381,069.13'
p33
tp34
sS'Z'
p35
(S'ZILLOW GROUP INC CLASS C'
p36
g12
S'6,283,586.70'
p37
tp38
sS'RP'
p39
(S'REALPAGE INC'
p40
g3
S'4,504,818.78'
p41
tp42
sS'PFPT'
p43
(S'PROOFPOINT INC'
p44
g3
S'5,062,026.00'
p45
tp46
sS'SPLK'
p47
(S'SPLUNK INC'
p48
g3
S'22,312,906.98'
p49
tp50
sS'CDNS'
p51
(S'CADENCE DESIGN SYSTEMS INC'
p52
g3
S'20,642,232.03'
p53
tp54
sS'MANH'
p55
(S'MANHATTAN ASSOCIATES INC'
p56
g3
S'4,424,973.84'
p57
tp58
sS'SMTC'
p59
(S'SEMTECH CORP'
p60
g3
S'2,736,906.60'
p61
tp62
sS'AVLR'
p63
(S'AVALARA INC'
p64
g3
S'5,445,972.15'
p65
tp66
sS'CTSH'
p67
(S'COGNIZANT TECHNOLOGY SOLUTIONS COR'
p68
g3
S'24,449,320.44'
p69
tp70
sS'MTCH'
p71
(S'MATCH GROUP INC'
p72
g12
S'3,845,489.76'
p73
tp74
sS'GRUB'
p75
(S'GRUBHUB INC'
p76
S'Consumer Discretionary'
p77
S'4,701,910.05'
p78
tp79
sS'IAC'
p80
(S'IAC INTERACTIVE'
p81
g12
S'16,294,385.75'
p82
tp83
sS'KBR'
p84
(S'KBR INC'
p85
g3
S'2,865,480.30'
p86
tp87
sS'AYX'
p88
(S'ALTERYX INC CLASS A'
p89
g3
S'5,560,853.20'
p90
tp91
sS'XLNX'
p92
(S'XILINX INC'
p93
g3
S'18,777,825.78'
p94
tp95
sS'LOGM'
p96
(S'LOGMEIN INC'
p97
g3
S'3,450,177.86'
p98
tp99
sS'PCTY'
p100
(S'PAYLOCITY HOLDING CORP'
p101
g3
S'3,712,418.52'
p102
tp103
sS'TYL'
p104
(S'TYLER TECHNOLOGIES INC'
p105
g3
S'11,415,636.00'
p106
tp107
sS'ON'
p108
(S'ON SEMICONDUCTOR CORP'
p109
g3
S'6,196,199.45'
p110
tp111
sS'VRSN'
p112
(S'VERISIGN INC'
p113
g3
S'17,552,043.52'
p114
tp115
sS'DOX'
p116
(S'AMDOCS LTD'
p117
g3
S'7,094,200.02'
p118
tp119
sS'DBX'
p120
(S'DROPBOX INC CLASS A'
p121
g3
S'3,667,615.78'
p122
tp123
sS'PSTG'
p124
(S'PURE STORAGE INC CLASS A'
p125
g3
S'2,892,606.96'
p126
tp127
sS'OKTA'
p128
(S'OKTA INC CLASS A'
p129
g3
S'16,730,784.32'
p130
tp131
sS'SNAP'
p132
(S'SNAP INC CLASS A'
p133
g12
S'12,882,239.19'
p134
tp135
sS'TTD'
p136
(S'TRADE DESK INC CLASS A'
p137
g3
S'11,519,560.84'
p138
tp139
sS'GWRE'
p140
(S'GUIDEWIRE SOFTWARE INC'
p141
g3
S'6,993,202.02'
p142
tp143
sS'SNX'
p144
(S'SYNNEX CORP'
p145
g3
S'3,317,962.41'
p146
tp147
sS'COUP'
p148
(S'COUPA SOFTWARE INC'
p149
g3
S'11,397,869.27'
p150
tp151
sS'SMAR'
p152
(S'SMARTSHEET INC CLASS A'
p153
g3
S'3,387,150.00'
p154
tp155
sS'AMAT'
p156
(S'APPLIED MATERIAL INC'
p157
g3
S'42,540,695.04'
p158
tp159
sS'SWKS'
p160
(S'SKYWORKS SOLUTIONS INC'
p161
g3
S'17,491,459.22'
p162
tp163
sS'NVDA'
p164
(S'NVIDIA CORP'
p165
g3
S'179,014,946.70'
p166
tp167
sS'SSNC'
p168
(S'SS AND C TECHNOLOGIES HOLDINGS INC'
p169
g3
S'10,164,368.64'
p170
tp171
sS'PANW'
p172
(S'PALO ALTO NETWORKS INC'
p173
g3
S'18,088,477.28'
p174
tp175
sS'CDK'
p176
(S'CDK GLOBAL INC'
p177
g3
S'4,165,899.84'
p178
tp179
sS'IDCC'
p180
(S'INTERDIGITAL INC'
p181
g3
S'1,384,675.70'
p182
tp183
sS'CRM'
p184
(S'SALESFORCE.COM INC'
p185
g3
S'126,869,497.95'
p186
tp187
sS'PS'
p188
(S'PLURALSIGHT INC CLASS A'
p189
g3
S'1,234,257.92'
p190
tp191
sS'AVGO'
p192
(S'BROADCOM INC'
p193
g3
S'96,869,643.75'
p194
tp195
sS'LILA'
p196
(S'LIBERTY LATIN AMERICA LTD CLASS A'
p197
g12
S'314,408.16'
p198
tp199
sS'PTC'
p200
(S'PTC INC'
p201
g3
S'6,281,049.04'
p202
tp203
sS'AMD'
p204
(S'ADVANCED MICRO DEVICES INC'
p205
g3
S'51,365,341.08'
p206
tp207
sS'EPAM'
p208
(S'EPAM SYSTEMS INC'
p209
g3
S'10,621,326.80'
p210
tp211
sS'MKSI'
p212
(S'MKS INSTRUMENTS INC'
p213
g3
S'4,651,009.32'
p214
tp215
sS'OLED'
p216
(S'UNIVERSAL DISPLAY CORP'
p217
g3
S'5,407,718.40'
p218
tp219
sS'LITE'
p220
(S'LUMENTUM HOLDINGS INC'
p221
g3
S'4,717,565.28'
p222
tp223
sS'CTXS'
p224
(S'CITRIX SYSTEMS INC'
p225
g3
S'13,195,943.28'
p226
tp227
sS'LRCX'
p228
(S'LAM RESEARCH CORP'
p229
g3
S'34,043,264.91'
p230
tp231
sS'ZM'
p232
(S'ZOOM VIDEO COMMUNICATIONS INC CLAS'
p233
g3
S'5,417,175.58'
p234
tp235
sS'GRMN'
p236
(S'GARMIN LTD'
p237
g77
S'10,990,512.40'
p238
tp239
sS'JNPR'
p240
(S'JUNIPER NETWORKS INC'
p241
g3
S'6,478,212.38'
p242
tp243
sS'SNPS'
p244
(S'SYNOPSYS INC'
p245
g3
S'22,456,515.84'
p246
tp247
sS'XASM0'
p248
(S'E-MINI S&P COMM SVS SEL SEC JUN 20'
p249
S'Cash and/or Derivatives'
p250
S'0.00'
p251
tp252
sS'ZG'
p253
(S'ZILLOW GROUP INC CLASS A'
p254
g12
S'1,617,036.96'
p255
tp256
sS'FFIV'
p257
(S'F5 NETWORKS INC'
p258
g3
S'6,956,080.86'
p259
tp260
sS'DELL'
p261
(S'DELL TECHNOLOGIES INC CLASS C'
p262
g3
S'6,015,048.54'
p263
tp264
sS'GDDY'
p265
(S'GODADDY INC CLASS A'
p266
g3
S'11,084,034.39'
p267
tp268
sS'QCOM'
p269
(S'QUALCOMM INC'
p270
g3
S'79,756,993.24'
p271
tp272
sS'XRX'
p273
(S'XEROX HOLDINGS CORP'
p274
g3
S'2,484,594.42'
p275
tp276
sS'PAYC'
p277
(S'PAYCOM SOFTWARE INC'
p278
g3
S'12,069,361.92'
p279
tp280
sS'WDAY'
p281
(S'WORKDAY INC CLASS A'
p282
g3
S'23,676,677.50'
p283
tp284
sS'ZS'
p285
(S'ZSCALER INC'
p286
g3
S'5,574,805.24'
p287
tp288
sS'SAIC'
p289
(S'SCIENCE APPLICATIONS INTERNATIONAL'
p290
g3
S'3,439,266.48'
p291
tp292
sS'RNG'
p293
(S'RINGCENTRAL INC CLASS A'
p294
g3
S'16,045,607.81'
p295
tp296
sS'ANGI'
p297
(S'ANGI HOMESERVICES INC CLASS A'
p298
g12
S'601,567.40'
p299
tp300
sS'MU'
p301
(S'MICRON TECHNOLOGY INC'
p302
g3
S'44,643,154.96'
p303
tp304
sS'UI'
p305
(S'UBIQUITI INC'
p306
g3
S'1,715,218.56'
p307
tp308
sS'IXTM0'
p309
(S'EMINI TECHNOLOGY SELECT SECTOR JUN'
p310
g250
g251
tp311
sS'MCHP'
p312
(S'MICROCHIP TECHNOLOGY INC'
p313
g3
S'19,378,419.75'
p314
tp315
sS'NOW'
p316
(S'SERVICENOW INC'
p317
g3
S'58,805,589.70'
p318
tp319
sS'CREE'
p320
(S'CREE INC'
p321
g3
S'5,187,495.00'
p322
tp323
sS'NUAN'
p324
(S'NUANCE COMMUNICATIONS INC'
p325
g3
S'5,432,727.30'
p326
tp327
sS'MPWR'
p328
(S'MONOLITHIC POWER SYSTEMS INC'
p329
g3
S'7,092,765.00'
p330
tp331
sS'ESTC'
p332
(S'ELASTIC NV'
p333
g3
S'2,143,926.40'
p334
tp335
sS'ACIW'
p336
(S'ACI WORLDWIDE INC'
p337
g3
S'2,478,816.30'
p338
tp339
sS'PEGA'
p340
(S'PEGASYSTEMS INC'
p341
g3
S'2,894,832.96'
p342
tp343
sS'FB'
p344
(S'FACEBOOK CLASS A INC'
p345
g12
S'259,682,566.68'
p346
tp347
sS'CTL'
p348
(S'CENTURYLINK INC'
p349
g12
S'7,960,524.00'
p350
tp351
sS'ADSK'
p352
(S'AUTODESK INC'
p353
g3
S'40,063,968.70'
p354
tp355
sS'MSFT'
p356
(S'MICROSOFT CORP'
p357
g3
S'973,859,794.32'
p358
tp359
sS'CIEN'
p360
(S'CIENA CORP'
p361
g3
S'6,720,627.83'
p362
tp363
sS'AZPN'
p364
(S'ASPEN TECHNOLOGY INC'
p365
g3
S'5,553,476.75'
p366
tp367
sS'MDB'
p368
(S'MONGODB INC CLASS A'
p369
g3
S'5,708,360.00'
p370
tp371
sS'CACI'
p372
(S'CACI INTERNATIONAL INC CLASS A'
p373
g3
S'4,972,958.42'
p374
tp375
sS'WORK'
p376
(S'SLACK TECHNOLOGIES CLASS A INC'
p377
g3
S'1,371,064.60'
p378
tp379
sS'NLOK'
p380
(S'NORTONLIFELOCK INC'
p381
g3
S'9,532,857.60'
p382
tp383
sS'TER'
p384
(S'TERADYNE INC'
p385
g3
S'9,873,888.02'
p386
tp387
sS'FICO'
p388
(S'FAIR ISAAC CORP'
p389
g3
S'9,721,777.59'
p390
tp391
sS'PRSP'
p392
(S'PERSPECTA INC'
p393
g3
S'2,409,727.32'
p394
tp395
sS'TECD'
p396
(S'TECH DATA CORP'
p397
g3
S'3,990,030.75'
p398
tp399
sS'CRWD'
p400
(S'CROWDSTRIKE HOLDINGS INC CLASS A'
p401
g3
S'1,648,278.72'
p402
tp403
sS'MRVL'
p404
(S'MARVELL TECHNOLOGY GROUP LTD'
p405
g3
S'18,493,066.48'
p406
tp407
sS'COMM'
p408
(S'COMMSCOPE HOLDING INC'
p409
g3
S'1,531,181.16'
p410
tp411
sS'FEYE'
p412
(S'FIREEYE INC'
p413
g3
S'2,211,127.78'
p414
tp415
sS'XTSLA'
p416
(S'BLK CSH FND TREASURY SL AGENCY'
p417
g250
S'6,490,000.00'
p418
tp419
sS'SLAB'
p420
(S'SILICON LABORATORIES INC'
p421
g3
S'3,402,926.10'
p422
tp423
sS'CARG'
p424
(S'CARGURUS INC CLASS A'
p425
g12
S'1,471,929.60'
p426
tp427
sS'ADI'
p428
(S'ANALOG DEVICES INC'
p429
g3
S'35,392,369.50'
p430
tp431
sS'NTAP'
p432
(S'NETAPP INC'
p433
g3
S'7,812,856.26'
p434
tp435
sS'TDC'
p436
(S'TERADATA CORP'
p437
g3
S'1,990,169.86'
p438
tp439
sS'VRNT'
p440
(S'VERINT SYSTEMS INC'
p441
g3
S'2,244,624.00'
p442
tp443
sS'ZEN'
p444
(S'ZENDESK INC'
p445
g3
S'7,442,077.93'
p446
tp447
sS'EBAY'
p448
(S'EBAY INC'
p449
g77
S'30,450,625.08'
p450
tp451
sS'VIAV'
p452
(S'VIAVI SOLUTIONS INC'
p453
g3
S'2,388,212.90'
p454
tp455
sS'CDW'
p456
(S'CDW CORP'
p457
g3
S'13,215,830.78'
p458
tp459
sS'ANET'
p460
(S'ARISTA NETWORKS INC'
p461
g3
S'9,875,756.80'
p462
tp463
sS'HUBS'
p464
(S'HUBSPOT INC'
p465
g3
S'6,727,203.12'
p466
tp467
sS'VMW'
p468
(S'VMWARE CLASS A INC'
p469
g3
S'8,946,075.60'
p470
tp471
sS'VSAT'
p472
(S'VIASAT INC'
p473
g3
S'1,905,603.48'
p474
tp475
sS'KLAC'
p476
(S'KLA CORP'
p477
g3
S'23,710,334.58'
p478
tp479
sS'SWI'
p480
(S'SOLARWINDS CORP'
p481
g3
S'979,801.46'
p482
tp483
sS'USD'
p484
(S'USD CASH'
p485
g250
S'3,704,677.48'
p486
tp487
sS'ADBE'
p488
(S'ADOBE INC'
p489
g3
S'156,012,751.79'
p490
tp491
sS'IBM'
p492
(S'INTERNATIONAL BUSINESS MACHINES CO'
p493
g3
S'86,886,986.68'
p494
tp495
sS'ANSS'
p496
(S'ANSYS INC'
p497
g3
S'19,365,391.28'
p498
tp499
sS'LBTYK'
p500
(S'LIBERTY GLOBAL PLC CLASS C'
p501
g12
S'7,192,424.00'
p502
tp503
sS'MXIM'
p504
(S'MAXIM INTEGRATED PRODUCTS INC'
p505
g3
S'12,848,485.50'
p506
tp507
sS'MSI'
p508
(S'MOTOROLA SOLUTIONS INC'
p509
g3
S'19,400,789.52'
p510
tp511
sS'NEWR'
p512
(S'NEW RELIC INC'
p513
g3
S'2,805,267.66'
p514
tp515
sS'LDOS'
p516
(S'LEIDOS HOLDINGS INC'
p517
g3
S'11,113,769.36'
p518
tp519
sS'DT'
p520
(S'DYNATRACE INC'
p521
g3
S'4,612,338.80'
p522
tp523
sS'BAH'
p524
(S'BOOZ ALLEN HAMILTON HOLDING CORP C'
p525
g3
S'9,010,723.40'
p526
tp527
sS'TXN'
p528
(S'TEXAS INSTRUMENT INC'
p529
g3
S'96,836,424.76'
p530
tp531
sS'VEEV'
p532
(S'VEEVA SYSTEMS INC CLASS A'
p533
S'Health Care'
p534
S'23,387,624.55'
p535
tp536
sS'CRUS'
p537
(S'CIRRUS LOGIC INC'
p538
g3
S'3,245,450.60'
p539
tp540
sS'TWTR'
p541
(S'TWITTER INC'
p542
g12
S'21,337,776.36'
p543
tp544
sS'TWLO'
p545
(S'TWILIO INC CLASS A'
p546
g3
S'19,535,385.60'
p547
tp548
sS'LILAK'
p549
(S'LIBERTY LATIN AMERICA LTD CLASS C'
p550
g12
S'758,700.56'
p551
tp552
sS'ORCL'
p553
(S'ORACLE CORP'
p554
g3
S'92,412,850.39'
p555
tp556
sS'GOOG'
p557
(S'ALPHABET INC CLASS C'
p558
g12
S'108,966,060.80'
p559
tp560
sS'JCOM'
p561
(S'J2 GLOBAL INC'
p562
g3
S'2,939,846.40'
p563
tp564
sS'AKAM'
p565
(S'AKAMAI TECHNOLOGIES INC'
p566
g3
S'13,511,344.64'
p567
tp568
sS'FTNT'
p569
(S'FORTINET INC'
p570
g3
S'15,560,474.52'
p571
tp572
sS'INTC'
p573
(S'INTEL CORPORATION CORP'
p574
g3
S'215,894,721.90'
p575
tp576
sS'CHWY'
p577
(S'CHEWY INC CLASS A'
p578
g77
S'2,188,313.28'
p579
tp580
sS'HPQ'
p581
(S'HP INC'
p582
g3
S'19,310,533.92'
p583
tp584
sS'IT'
p585
(S'GARTNER INC'
p586
g3
S'8,693,891.20'
p587
tp588
sS'DOCU'
p589
(S'DOCUSIGN INC'
p590
g3
S'15,482,473.10'
p591
tp592
sS'INTU'
p593
(S'INTUIT INC'
p594
g3
S'60,132,735.22'
p595
tp596
sS'CVLT'
p597
(S'COMMVAULT SYSTEMS INC'
p598
g3
S'1,292,116.52'
p599
tp600
sS'PLAN'
p601
(S'ANAPLAN INC'
p602
g3
S'3,068,082.03'
p603
tp604
sS'WFFUT'
p605
(S'CASH COLLATERAL USD WFFUT'
p606
g250
S'1,041,000.00'
p607
tp608
sS'CRNC'
p609
(S'CERENCE INC'
p610
g3
S'1,172,705.67'
p611
tp612
sS'ETSY'
p613
(S'ETSY INC'
p614
g77
S'7,643,084.40'
p615
tp616
sS'STX'
p617
(S'SEAGATE TECHNOLOGY PLC'
p618
g3
S'9,860,937.46'
p619
tp620
sS'HPE'
p621
(S'HEWLETT PACKARD ENTERPRISE'
p622
g3
S'10,498,244.25'
p623
tp624
sS'NTCT'
p625
(S'NETSCOUT SYSTEMS INC'
p626
g3
S'1,373,810.93'
p627
tp628
sS'CERN'
p629
(S'CERNER CORP'
p630
g534
S'17,615,798.80'
p631
tp632
sS'NCR'
p633
(S'NCR CORP'
p634
g3
S'1,882,500.48'
p635
tp636
sS'CSCO'
p637
(S'CISCO SYSTEMS INC'
p638
g3
S'154,013,740.21'
p639
tp640
sS'CDAY'
p641
(S'CERIDIAN HCM HOLDING INC'
p642
g3
S'5,910,664.24'
p643
tp644
sS'LBTYA'
p645
(S'LIBERTY GLOBAL PLC CLASS A'
p646
g12
S'2,396,640.96'
p647
tp648
sS'BLKB'
p649
(S'BLACKBAUD INC'
p650
g3
S'2,278,406.09'
p651
tp652
sS'DXC'
p653
(S'DXC TECHNOLOGY'
p654
g3
S'3,146,275.86'
p655
tp656
s.