(dp0
S'ENTA'
p1
(S'ENANTA PHARMACEUTICALS INC'
p2
S'Health Care'
p3
S'9,336,514.32'
p4
tp5
sS'RTYM0'
p6
(S'RUSSELL 2000 EMINI CME JUN 20'
p7
S'Cash and/or Derivatives'
p8
S'0.00'
p9
tp10
sS'FATE'
p11
(S'FATE THERAPEUTICS INC'
p12
g3
S'22,003,390.20'
p13
tp14
sS'SAGE'
p15
(S'SAGE THERAPEUTICS INC'
p16
g3
S'17,555,909.80'
p17
tp18
sS'DNLI'
p19
(S'DENALI THERAPEUTICS INC'
p20
g3
S'25,837,333.32'
p21
tp22
sS'MGNX'
p23
(S'MACROGENICS INC'
p24
g3
S'9,465,437.40'
p25
tp26
sS'SLDB'
p27
(S'SOLID BIOSCIENCES INC'
p28
g3
S'1,328,028.06'
p29
tp30
sS'ESPR'
p31
(S'ESPERION THERAPEUTICS INC'
p32
g3
S'11,334,512.34'
p33
tp34
sS'EIDX'
p35
(S'EIDOS THERAPEUTICS INC'
p36
g3
S'17,748,200.50'
p37
tp38
sS'RETA'
p39
(S'REATA PHARMACEUTICALS INC CLASS A'
p40
g3
S'45,581,795.84'
p41
tp42
sS'CARA'
p43
(S'CARA THERAPEUTICS INC'
p44
g3
S'6,849,403.74'
p45
tp46
sS'RARE'
p47
(S'ULTRAGENYX PHARMACEUTICAL INC'
p48
g3
S'37,464,432.44'
p49
tp50
sS'VNDA'
p51
(S'VANDA PHARMACEUTICALS INC'
p52
g3
S'5,508,069.28'
p53
tp54
sS'ORTX'
p55
(S'ORCHARD THERAPEUTICS ADR PLC'
p56
g3
S'4,323,757.95'
p57
tp58
sS'ALLO'
p59
(S'ALLOGENE THERAPEUTICS INC'
p60
g3
S'49,887,201.00'
p61
tp62
sS'BPMC'
p63
(S'BLUEPRINT MEDICINES CORP'
p64
g3
S'36,319,078.10'
p65
tp66
sS'ALLK'
p67
(S'ALLAKOS INC'
p68
g3
S'33,096,786.80'
p69
tp70
sS'CRBP'
p71
(S'CORBUS PHARMACEUTICALS HOLDINGS IN'
p72
g3
S'4,690,455.60'
p73
tp74
sS'TCDA'
p75
(S'TRICIDA INC'
p76
g3
S'12,267,438.00'
p77
tp78
sS'CHMA'
p79
(S'CHIASMA INC'
p80
g3
S'2,368,463.93'
p81
tp82
sS'VRTX'
p83
(S'VERTEX PHARMACEUTICALS INC'
p84
g3
S'655,887,247.73'
p85
tp86
sS'PRQR'
p87
(S'PROQR THERAPEUTICS NV'
p88
g3
S'2,528,494.92'
p89
tp90
sS'MYL'
p91
(S'MYLAN NV'
p92
g3
S'81,959,431.80'
p93
tp94
sS'SGAFT'
p95
(S'CASH COLLATERAL USD SGAFT'
p96
g8
S'1,507,000.00'
p97
tp98
sS'AUPH'
p99
(S'AURINIA PHARMACEUTICALS INC'
p100
g3
S'15,207,087.82'
p101
tp102
sS'PCRX'
p103
(S'PACIRA BIOSCIENCES INC'
p104
g3
S'17,396,641.32'
p105
tp106
sS'PRNB'
p107
(S'PRINCIPIA BIOPHARMA INC'
p108
g3
S'19,171,989.21'
p109
tp110
sS'SIGA'
p111
(S'SIGA TECHNOLOGIES INC'
p112
g3
S'4,448,114.76'
p113
tp114
sS'AXNX'
p115
(S'AXONICS MODULATION TECHNOLOGIES IN'
p116
g3
S'13,481,572.86'
p117
tp118
sS'EXEL'
p119
(S'EXELIXIS INC'
p120
g3
S'64,317,510.96'
p121
tp122
sS'AVRO'
p123
(S'AVROBIO INC'
p124
g3
S'7,605,324.30'
p125
tp126
sS'RVNC'
p127
(S'REVANCE THERAPEUTICS INC'
p128
g3
S'11,377,117.92'
p129
tp130
sS'MNKD'
p131
(S'MANNKIND CORP'
p132
g3
S'2,877,284.07'
p133
tp134
sS'CRSP'
p135
(S'CRISPR THERAPEUTICS AG'
p136
g3
S'35,372,011.20'
p137
tp138
sS'AKCA'
p139
(S'AKCEA THERAPEUTICS INC'
p140
g3
S'12,525,538.26'
p141
tp142
sS'XBIT'
p143
(S'XBIOTECH INC'
p144
g3
S'3,765,066.25'
p145
tp146
sS'KPTI'
p147
(S'KARYOPHARM THERAPEUTICS INC'
p148
g3
S'11,806,351.60'
p149
tp150
sS'CHRS'
p151
(S'COHERUS BIOSCIENCES INC'
p152
g3
S'11,111,066.52'
p153
tp154
sS'GMAB'
p155
(S'GENMAB SPONSORED ADR'
p156
g3
S'9,717,786.00'
p157
tp158
sS'VCYT'
p159
(S'VERACYTE INC'
p160
g3
S'11,569,843.91'
p161
tp162
sS'GH'
p163
(S'GUARDANT HEALTH INC'
p164
g3
S'69,923,872.20'
p165
tp166
sS'PBYI'
p167
(S'PUMA BIOTECHNOLOGY INC'
p168
g3
S'3,690,073.96'
p169
tp170
sS'QURE'
p171
(S'UNIQURE NV'
p172
g3
S'26,323,854.80'
p173
tp174
sS'AMRN'
p175
(S'AMARIN ADR REPRESENTING PLC'
p176
g3
S'23,248,270.40'
p177
tp178
sS'SRPT'
p179
(S'SAREPTA THERAPEUTICS INC'
p180
g3
S'116,371,968.00'
p181
tp182
sS'RIGL'
p183
(S'RIGEL PHARMACEUTICALS INC'
p184
g3
S'2,960,867.64'
p185
tp186
sS'EDIT'
p187
(S'EDITAS MEDICINE INC'
p188
g3
S'13,358,041.08'
p189
tp190
sS'UBX'
p191
(S'UNITY BIOTECHNOLOGY INC'
p192
g3
S'3,869,246.70'
p193
tp194
sS'MYGN'
p195
(S'MYRIAD GENETICS INC'
p196
g3
S'8,944,969.08'
p197
tp198
sS'ANAB'
p199
(S'ANAPTYSBIO INC'
p200
g3
S'4,904,396.28'
p201
tp202
sS'NSTG'
p203
(S'NANOSTRING TECHNOLOGIES INC'
p204
g3
S'10,226,377.80'
p205
tp206
sS'SUPN'
p207
(S'SUPERNUS PHARMACEUTICALS INC'
p208
g3
S'11,388,141.70'
p209
tp210
sS'PRAH'
p211
(S'PRA HEALTH SCIENCES INC'
p212
g3
S'58,657,479.11'
p213
tp214
sS'AERI'
p215
(S'AERIE PHARMACEUTICALS INC'
p216
g3
S'5,991,630.59'
p217
tp218
sS'ALEC'
p219
(S'ALECTOR INC'
p220
g3
S'22,282,715.35'
p221
tp222
sS'ARGX'
p223
(S'ARGENX SE ADR'
p224
g3
S'49,598,014.50'
p225
tp226
sS'AMAG'
p227
(S'AMAG PHARMACEUTICALS INC'
p228
g3
S'2,394,372.60'
p229
tp230
sS'SYNH'
p231
(S'SYNEOS HEALTH INC CLASS A'
p232
g3
S'53,364,472.45'
p233
tp234
sS'NGM'
p235
(S'NGM BIOPHARMACEUTICALS INC'
p236
g3
S'13,643,212.50'
p237
tp238
sS'URGN'
p239
(S'UROGEN PHARMA LTD'
p240
g3
S'5,186,008.80'
p241
tp242
sS'HZNP'
p243
(S'HORIZON THERAPEUTICS PUBLIC PLC'
p244
g3
S'85,111,638.00'
p245
tp246
sS'EGRX'
p247
(S'EAGLE PHARMACEUTICALS INC'
p248
g3
S'6,152,021.76'
p249
tp250
sS'GWPH'
p251
(S'GW PHARMACEUTICALS ADR REPRESENTIN'
p252
g3
S'34,943,582.40'
p253
tp254
sS'REGN'
p255
(S'REGENERON PHARMACEUTICALS INC'
p256
g3
S'618,201,227.52'
p257
tp258
sS'GBT'
p259
(S'GLOBAL BLOOD THERAPEUTICS INC'
p260
g3
S'37,049,991.30'
p261
tp262
sS'BMRN'
p263
(S'BIOMARIN PHARMACEUTICAL INC'
p264
g3
S'182,035,837.44'
p265
tp266
sS'PTGX'
p267
(S'PROTAGONIST THERAPEUTICS INC'
p268
g3
S'5,246,427.34'
p269
tp270
sS'AFMD'
p271
(S'AFFIMED NV'
p272
g3
S'2,200,752.00'
p273
tp274
sS'ARVN'
p275
(S'ARVINAS INC'
p276
g3
S'12,025,605.72'
p277
tp278
sS'AGLE'
p279
(S'AEGLEA BIOTHERAPEUTICS INC'
p280
g3
S'3,280,906.53'
p281
tp282
sS'PGEN'
p283
(S'PRECIGEN INC'
p284
g3
S'5,898,151.35'
p285
tp286
sS'TPTX'
p287
(S'TURNING POINT THERAPEUTICS INC'
p288
g3
S'23,882,113.36'
p289
tp290
sS'ARNA'
p291
(S'ARENA PHARMACEUTICALS INC'
p292
g3
S'30,146,623.50'
p293
tp294
sS'SGMO'
p295
(S'SANGAMO THERAPEUTICS INC'
p296
g3
S'15,513,774.85'
p297
tp298
sS'ASMB'
p299
(S'ASSEMBLY BIOSCIENCES INC'
p300
g3
S'6,485,346.34'
p301
tp302
sS'ALNY'
p303
(S'ALNYLAM PHARMACEUTICALS INC'
p304
g3
S'138,088,015.20'
p305
tp306
sS'ANIP'
p307
(S'ANI PHARMACEUTICALS INC'
p308
g3
S'3,705,162.78'
p309
tp310
sS'SGEN'
p311
(S'SEATTLE GENETICS INC'
p312
g3
S'249,270,910.85'
p313
tp314
sS'IOVA'
p315
(S'IOVANCE BIOTHERAPEUTICS INC'
p316
g3
S'36,498,711.84'
p317
tp318
sS'INVA'
p319
(S'INNOVIVA INC'
p320
g3
S'13,020,489.34'
p321
tp322
sS'WVE'
p323
(S'WAVE LIFE SCIENCES LTD'
p324
g3
S'2,992,370.43'
p325
tp326
sS'ADVM'
p327
(S'ADVERUM BIOTECHNOLOGIES INC'
p328
g3
S'16,395,058.68'
p329
tp330
sS'RYTM'
p331
(S'RHYTHM PHARMACEUTICALS INC'
p332
g3
S'8,112,858.31'
p333
tp334
sS'BCRX'
p335
(S'BIOCRYST PHARMACEUTICALS INC'
p336
g3
S'6,352,050.90'
p337
tp338
sS'PACB'
p339
(S'PACIFIC BIOSCIENCES OF CALIFORNIA'
p340
g3
S'5,008,817.64'
p341
tp342
sS'APLS'
p343
(S'APELLIS PHARMACEUTICALS INC'
p344
g3
S'22,371,249.60'
p345
tp346
sS'TORC'
p347
(S'RESTORBIO'
p348
g3
S'720,895.20'
p349
tp350
sS'JAZZ'
p351
(S'JAZZ PHARMACEUTICALS PLC'
p352
g3
S'57,801,910.87'
p353
tp354
sS'AXSM'
p355
(S'AXSOME THERAPEUTICS INC'
p356
g3
S'25,726,850.54'
p357
tp358
sS'CLLS'
p359
(S'CELLECTIS ADR REPRESENTING SA'
p360
g3
S'2,624,419.14'
p361
tp362
sS'GRTS'
p363
(S'GRITSTONE ONCOLOGY INC'
p364
g3
S'2,236,717.65'
p365
tp366
sS'AMRS'
p367
(S'AMYRIS INC'
p368
S'Materials'
p369
S'5,930,274.90'
p370
tp371
sS'IRWD'
p372
(S'IRONWOOD PHARMA INC CLASS A'
p373
g3
S'14,378,812.12'
p374
tp375
sS'HALO'
p376
(S'HALOZYME THERAPEUTICS INC'
p377
g3
S'30,968,184.46'
p378
tp379
sS'HCM'
p380
(S'HUTCHISON CHINA MEDITECH ADR REPRE'
p381
g3
S'10,638,178.57'
p382
tp383
sS'AMPH'
p384
(S'AMPHASTAR PHARMACEUTICALS INC'
p385
g3
S'9,024,478.65'
p386
tp387
sS'EYPT'
p388
(S'EYEPOINT PHARMACEUTICALS INC'
p389
g3
S'1,002,742.08'
p390
tp391
sS'PRVL'
p392
(S'PREVAIL THERAPEUTICS INC'
p393
g3
S'5,185,318.55'
p394
tp395
sS'LXRX'
p396
(S'LEXICON PHARMACEUTICALS INC'
p397
g3
S'1,971,967.72'
p398
tp399
sS'KURA'
p400
(S'KURA ONCOLOGY INC'
p401
g3
S'8,172,941.85'
p402
tp403
sS'FAM0'
p404
(S'S&P MID 400 EMINI JUN 20'
p405
g8
g9
tp406
sS'MEDP'
p407
(S'MEDPACE HOLDINGS INC'
p408
g3
S'28,481,620.24'
p409
tp410
sS'INO'
p411
(S'INOVIO PHARMACEUTICALS INC'
p412
g3
S'18,741,621.78'
p413
tp414
sS'SRRK'
p415
(S'SCHOLAR ROCK HOLDING CORP'
p416
g3
S'4,545,331.22'
p417
tp418
sS'ARWR'
p419
(S'ARROWHEAD PHARMACEUTICALS INC'
p420
g3
S'31,248,852.12'
p421
tp422
sS'SNY'
p423
(S'SANOFI ADR REPRESENTING SA'
p424
g3
S'100,300,096.26'
p425
tp426
sS'GTHX'
p427
(S'G1 THERAPEUTICS INC'
p428
g3
S'6,485,728.14'
p429
tp430
sS'OPK'
p431
(S'OPKO HEALTH INC'
p432
g3
S'16,139,278.62'
p433
tp434
sS'GOSS'
p435
(S'GOSSAMER BIO INC'
p436
g3
S'8,539,175.65'
p437
tp438
sS'ACAD'
p439
(S'ACADIA PHARMACEUTICALS INC'
p440
g3
S'68,381,146.48'
p441
tp442
sS'AGIO'
p443
(S'AGIOS PHARMACEUTICALS INC'
p444
g3
S'33,791,316.30'
p445
tp446
sS'CGEN'
p447
(S'COMPUGEN LTD'
p448
g3
S'9,571,577.73'
p449
tp450
sS'GERN'
p451
(S'GERON CORP'
p452
g3
S'3,189,293.25'
p453
tp454
sS'ACIU'
p455
(S'AC IMMUNE SA'
p456
g3
S'4,464,186.75'
p457
tp458
sS'SPPI'
p459
(S'SPECTRUM PHARMACEUTICALS INC'
p460
g3
S'3,120,191.56'
p461
tp462
sS'AMGN'
p463
(S'AMGEN INC'
p464
g3
S'663,166,743.80'
p465
tp466
sS'XLRN'
p467
(S'ACCELERON PHARMA INC'
p468
g3
S'47,251,332.72'
p469
tp470
sS'FOLD'
p471
(S'AMICUS THERAPEUTICS INC'
p472
g3
S'27,449,083.44'
p473
tp474
sS'ZLAB'
p475
(S'ZAI LABORATORY ADR REPRESENTING LT'
p476
g3
S'36,046,999.04'
p477
tp478
sS'STOK'
p479
(S'STOKE THERAPEUTICS INC'
p480
g3
S'7,307,309.47'
p481
tp482
sS'OPTN'
p483
(S'OPTINOSE INC'
p484
g3
S'2,406,635.40'
p485
tp486
sS'XNCR'
p487
(S'XENCOR INC'
p488
g3
S'16,216,511.70'
p489
tp490
sS'BGNE'
p491
(S'BEIGENE ADR REPRESENTING LTD'
p492
g3
S'66,926,075.92'
p493
tp494
sS'AIMT'
p495
(S'AIMMUNE THERAPEUTICS INC'
p496
g3
S'11,145,710.25'
p497
tp498
sS'RDUS'
p499
(S'RADIUS HEALTH INC'
p500
g3
S'5,739,864.66'
p501
tp502
sS'TECH'
p503
(S'BIO TECHNE CORP'
p504
g3
S'90,416,599.28'
p505
tp506
sS'LGND'
p507
(S'LIGAND PHARMACEUTICALS INC'
p508
g3
S'17,780,208.85'
p509
tp510
sS'OMER'
p511
(S'OMEROS CORP'
p512
g3
S'7,947,251.00'
p513
tp514
sS'MCRB'
p515
(S'SERES THERAPEUTICS INC'
p516
g3
S'3,018,214.32'
p517
tp518
sS'RTRX'
p519
(S'RETROPHIN INC'
p520
g3
S'6,108,434.31'
p521
tp522
sS'IONS'
p523
(S'IONIS PHARMACEUTICALS INC'
p524
g3
S'77,431,697.30'
p525
tp526
sS'DTIL'
p527
(S'PRECISION BIOSCIENCES INC'
p528
g3
S'3,708,164.18'
p529
tp530
sS'BBIO'
p531
(S'BRIDGEBIO PHARMA INC'
p532
g3
S'33,442,263.68'
p533
tp534
sS'IMGN'
p535
(S'IMMUNOGEN INC'
p536
g3
S'7,320,870.40'
p537
tp538
sS'CSTL'
p539
(S'CASTLE BIOSCIENCES INC'
p540
g3
S'6,150,883.40'
p541
tp542
sS'FIXX'
p543
(S'HOMOLOGY MEDICINES INC'
p544
g3
S'6,264,475.80'
p545
tp546
sS'GILD'
p547
(S'GILEAD SCIENCES INC'
p548
g3
S'635,449,531.56'
p549
tp550
sS'RGNX'
p551
(S'REGENXBIO INC'
p552
g3
S'12,295,039.00'
p553
tp554
sS'INSM'
p555
(S'INSMED INC'
p556
g3
S'27,021,916.44'
p557
tp558
sS'SYRS'
p559
(S'SYROS PHARMACEUTICALS INC'
p560
g3
S'3,790,162.74'
p561
tp562
sS'ILMN'
p563
(S'ILLUMINA INC'
p564
g3
S'383,678,094.52'
p565
tp566
sS'PRTA'
p567
(S'PROTHENA PLC'
p568
g3
S'3,902,915.64'
p569
tp570
sS'CBPO'
p571
(S'CHINA BIOLOGIC PRODUCTS HOLDINGS I'
p572
g3
S'40,314,207.52'
p573
tp574
sS'XTSLA'
p575
(S'BLK CSH FND TREASURY SL AGENCY'
p576
g8
S'14,890,000.06'
p577
tp578
sS'RUBY'
p579
(S'RUBIUS THERAPEUTICS INC'
p580
g3
S'4,842,709.36'
p581
tp582
sS'ADPT'
p583
(S'ADAPTIVE BIOTECHNOLOGIES CORP'
p584
g3
S'51,557,153.90'
p585
tp586
sS'BLUE'
p587
(S'BLUEBIRD BIO INC'
p588
g3
S'39,855,924.72'
p589
tp590
sS'TXMD'
p591
(S'THERAPEUTICSMD INC'
p592
g3
S'3,246,289.46'
p593
tp594
sS'FGEN'
p595
(S'FIBROGEN INC'
p596
g3
S'29,715,735.00'
p597
tp598
sS'TWST'
p599
(S'TWIST BIOSCIENCE CORP'
p600
g3
S'13,268,964.80'
p601
tp602
sS'QTRX'
p603
(S'QUANTERIX CORP'
p604
g3
S'6,689,738.85'
p605
tp606
sS'COLL'
p607
(S'COLLEGIUM PHARMACEUTICAL INC'
p608
g3
S'5,793,704.57'
p609
tp610
sS'GRFS'
p611
(S'GRIFOLS ADR REPRESENTING ONE NON-V'
p612
g3
S'24,476,269.36'
p613
tp614
sS'PSNL'
p615
(S'PERSONALIS INC'
p616
g3
S'3,679,345.25'
p617
tp618
sS'TBPH'
p619
(S'THERAVANCE BIOPHARMA INC'
p620
g3
S'15,664,746.24'
p621
tp622
sS'EOLS'
p623
(S'EVOLUS INC'
p624
g3
S'1,551,595.96'
p625
tp626
sS'MRNA'
p627
(S'MODERNA INC'
p628
g3
S'216,179,705.00'
p629
tp630
sS'DRNA'
p631
(S'DICERNA PHARMACEUTICALS INC'
p632
g3
S'14,145,748.74'
p633
tp634
sS'ASND'
p635
(S'ASCENDIS PHARMA ADR REPRESENTING'
p636
g3
S'63,454,806.26'
p637
tp638
sS'KRTX'
p639
(S'KARUNA THERAPEUTICS INC'
p640
g3
S'23,194,829.30'
p641
tp642
sS'MGTX'
p643
(S'MEIRAGTX HOLDINGS PLC'
p644
g3
S'4,594,546.20'
p645
tp646
sS'ATRA'
p647
(S'ATARA BIOTHERAPEUTICS INC'
p648
g3
S'5,124,729.84'
p649
tp650
sS'USD'
p651
(S'USD CASH'
p652
g8
S'5,125,899.34'
p653
tp654
sS'ITCI'
p655
(S'INTRA CELLULAR THERAPIES INC'
p656
g3
S'13,097,978.47'
p657
tp658
sS'MNTA'
p659
(S'MOMENTA PHARMACEUTICALS INC'
p660
g3
S'34,948,906.28'
p661
tp662
sS'AKRO'
p663
(S'AKERO THERAPEUTICS INC'
p664
g3
S'6,519,754.80'
p665
tp666
sS'AKBA'
p667
(S'AKEBIA THERAPEUTICS INC'
p668
g3
S'14,480,624.34'
p669
tp670
sS'KOD'
p671
(S'KODIAK SCIENCES INC'
p672
g3
S'25,446,546.40'
p673
tp674
sS'NBIX'
p675
(S'NEUROCRINE BIOSCIENCES INC'
p676
g3
S'101,732,537.40'
p677
tp678
sS'MYOK'
p679
(S'MYOKARDIA INC'
p680
g3
S'47,375,105.12'
p681
tp682
sS'CTMX'
p683
(S'CYTOMX THERAPEUTICS INC'
p684
g3
S'3,302,319.73'
p685
tp686
sS'VYGR'
p687
(S'VOYAGER THERAPEUTICS INC'
p688
g3
S'4,314,369.95'
p689
tp690
sS'MGTA'
p691
(S'MAGENTA THERAPEUTICS INC'
p692
g3
S'3,466,151.26'
p693
tp694
sS'EPZM'
p695
(S'EPIZYME INC'
p696
g3
S'16,736,058.35'
p697
tp698
sS'PTCT'
p699
(S'PTC THERAPEUTICS INC'
p700
g3
S'28,886,970.96'
p701
tp702
sS'CYTK'
p703
(S'CYTOKINETICS INC'
p704
g3
S'12,034,937.00'
p705
tp706
sS'PTLA'
p707
(S'PORTOLA PHARMACEUTICALS INC'
p708
g3
S'13,616,298.54'
p709
tp710
sS'ENDP'
p711
(S'ENDO INTERNATIONAL PLC'
p712
g3
S'7,952,107.22'
p713
tp714
sS'NTLA'
p715
(S'INTELLIA THERAPEUTICS INC'
p716
g3
S'9,331,452.00'
p717
tp718
sS'INCY'
p719
(S'INCYTE CORP'
p720
g3
S'191,758,936.50'
p721
tp722
sS'BIIB'
p723
(S'BIOGEN INC'
p724
g3
S'472,594,486.56'
p725
tp726
sS'-'
p727
(S'ALEXION PHARMACEUTICALS CVR'
p728
g3
S'1,891.52'
p729
tp730
sS'PGNX'
p731
(S'PROGENICS PHARMACEUTICALS INC'
p732
g3
S'3,316,854.98'
p733
tp734
sS'NVCR'
p735
(S'NOVOCURE LTD'
p736
g3
S'63,119,483.63'
p737
tp738
sS'PETQ'
p739
(S'PETIQ INC CLASS A'
p740
g3
S'6,880,440.00'
p741
tp742
sS'OSMT'
p743
(S'OSMOTICA PHARMACEUTICALS PLC'
p744
g3
S'3,149,728.88'
p745
tp746
sS'DCPH'
p747
(S'DECIPHERA PHARMACEUTICALS INC'
p748
g3
S'27,801,052.00'
p749
tp750
sS'ATNX'
p751
(S'ATHENEX INC'
p752
g3
S'9,179,315.04'
p753
tp754
sS'LMNX'
p755
(S'LUMINEX CORP'
p756
g3
S'12,966,782.49'
p757
tp758
sS'XERS'
p759
(S'XERIS PHARMACEUTICALS INC'
p760
g3
S'1,520,453.22'
p761
tp762
sS'FLXN'
p763
(S'FLEXION THERAPEUTICS INC'
p764
g3
S'4,013,384.82'
p765
tp766
sS'AUTL'
p767
(S'AUTOLUS THERAPEUTICS ADR PLC'
p768
g3
S'4,233,999.57'
p769
tp770
sS'UTHR'
p771
(S'UNITED THERAPEUTICS CORP'
p772
g3
S'49,719,529.30'
p773
tp774
sS'ADMA'
p775
(S'ADMA BIOLOGICS INC'
p776
g3
S'2,366,467.60'
p777
tp778
sS'TBIO'
p779
(S'TRANSLATE BIO INC'
p780
g3
S'8,690,988.03'
p781
tp782
sS'ALXN'
p783
(S'ALEXION PHARMACEUTICALS INC'
p784
g3
S'236,850,221.66'
p785
tp786
sS'BCEL'
p787
(S'ATRECA INC CLASS A'
p788
g3
S'3,474,926.02'
p789
tp790
sS'ICPT'
p791
(S'INTERCEPT PHARMACEUTICALS INC'
p792
g3
S'23,465,958.23'
p793
tp794
sS'PDLI'
p795
(S'PDL BIOPHARMA INC'
p796
g3
S'3,532,518.40'
p797
tp798
sS'CCXI'
p799
(S'CHEMOCENTRYX INC'
p800
g3
S'32,915,296.56'
p801
tp802
sS'ZGNX'
p803
(S'ZOGENIX INC'
p804
g3
S'15,482,852.50'
p805
tp806
sS'ALKS'
p807
(S'ALKERMES'
p808
g3
S'24,536,936.14'
p809
tp810
sS'RCKT'
p811
(S'ROCKET PHARMACEUTICALS INC'
p812
g3
S'9,008,786.91'
p813
tp814
sS'GLPG'
p815
(S'GALAPAGOS ADR REPRESENTING NV'
p816
g3
S'13,601,952.72'
p817
tp818
sS'CBAY'
p819
(S'CYMABAY THERAPEUTICS INC'
p820
g3
S'2,257,560.33'
p821
tp822
sS'GLYC'
p823
(S'GLYCOMIMETICS INC'
p824
g3
S'1,121,872.59'
p825
tp826
sS'BDSI'
p827
(S'BIODELIVERY SCIENCES INTERNATIONAL'
p828
g3
S'4,285,733.11'
p829
tp830
sS'NKTR'
p831
(S'NEKTAR THERAPEUTICS'
p832
g3
S'35,026,804.90'
p833
tp834
sS'CERS'
p835
(S'CERUS CORP'
p836
g3
S'8,890,644.00'
p837
tp838
sS'EIGR'
p839
(S'EIGER BIOPHARMACEUTICALS INC'
p840
g3
S'2,285,911.62'
p841
tp842
sS'ARDX'
p843
(S'ARDELYX INC'
p844
g3
S'5,388,392.57'
p845
tp846
sS'IMMU'
p847
(S'IMMUNOMEDICS INC'
p848
g3
S'63,163,615.20'
p849
tp850
sS'MRTX'
p851
(S'MIRATI THERAPEUTICS INC'
p852
g3
S'42,638,388.78'
p853
tp854
sS'YMAB'
p855
(S'Y MABS THERAPEUTICS INC'
p856
g3
S'15,807,126.42'
p857
tp858
s.