(dp0
S'RYN'
p1
(S'RAYONIER REIT INC'
p2
S'Real Estate'
p3
S'9,505,596.36'
p4
tp5
sS'WELL'
p6
(S'WELLTOWER INC'
p7
g3
S'64,746,241.39'
p8
tp9
sS'EGP'
p10
(S'EASTGROUP PROPERTIES REIT INC'
p11
g3
S'13,696,350.99'
p12
tp13
sS'EPR'
p14
(S'EPR PROPERTIES REIT'
p15
g3
S'8,431,814.95'
p16
tp17
sS'DRH'
p18
(S'DIAMONDROCK HOSPITALITY REIT'
p19
g3
S'3,789,446.10'
p20
tp21
sS'CCI'
p22
(S'CROWN CASTLE INTERNATIONAL REIT CO'
p23
g3
S'196,423,586.25'
p24
tp25
sS'CONE'
p26
(S'CYRUSONE REIT INC'
p27
g3
S'24,263,124.27'
p28
tp29
sS'SBAC'
p30
(S'SBA COMMUNICATIONS REIT CORP CLASS'
p31
g3
S'93,136,047.63'
p32
tp33
sS'CXW'
p34
(S'CORECIVIC REIT INC'
p35
g3
S'3,797,823.19'
p36
tp37
sS'DRE'
p38
(S'DUKE REALTY REIT CORP'
p39
g3
S'38,440,701.78'
p40
tp41
sS'WY'
p42
(S'WEYERHAEUSER REIT'
p43
g3
S'47,744,258.49'
p44
tp45
sS'NNN'
p46
(S'NATIONAL RETAIL PROPERTIES REIT IN'
p47
g3
S'18,428,595.20'
p48
tp49
sS'OHI'
p50
(S'OMEGA HEALTHCARE INVESTORS REIT IN'
p51
g3
S'20,688,666.80'
p52
tp53
sS'VNO'
p54
(S'VORNADO REALTY TRUST REIT'
p55
g3
S'18,574,315.76'
p56
tp57
sS'HST'
p58
(S'HOST HOTELS & RESORTS REIT INC'
p59
g3
S'25,533,929.00'
p60
tp61
sS'AKR'
p62
(S'ACADIA REALTY TRUST REIT'
p63
g3
S'3,916,152.56'
p64
tp65
sS'SPG'
p66
(S'SIMON PROPERTY GROUP REIT INC'
p67
g3
S'62,257,891.36'
p68
tp69
sS'OFC'
p70
(S'CORPORATE OFFICE PROPERTIES TRUST'
p71
g3
S'8,326,922.71'
p72
tp73
sS'WRE'
p74
(S'WASHINGTON REAL ESTATE INVESTMENT'
p75
g3
S'5,653,057.56'
p76
tp77
sS'EQR'
p78
(S'EQUITY RESIDENTIAL REIT'
p79
g3
S'61,817,854.32'
p80
tp81
sS'SVC'
p82
(S'SERVICE PROPERTIES TRUST'
p83
g3
S'4,363,012.25'
p84
tp85
sS'WRI'
p86
(S'WEINGARTEN REALTY INVESTORS REIT'
p87
g3
S'7,092,863.06'
p88
tp89
sS'STOR'
p90
(S'STORE CAPITAL CORP'
p91
g3
S'15,424,956.26'
p92
tp93
sS'EQC'
p94
(S'EQUITY COMMONWEALTH REIT'
p95
g3
S'11,217,364.20'
p96
tp97
sS'GLPI'
p98
(S'GAMING AND LEISURE PROPERTIES REIT'
p99
g3
S'21,973,894.46'
p100
tp101
sS'CLNY'
p102
(S'COLONY CAPITAL INC CLASS A'
p103
g3
S'4,505,667.60'
p104
tp105
sS'CXP'
p106
(S'COLUMBIA PROPERTY REIT INC TRUST'
p107
g3
S'5,051,027.02'
p108
tp109
sS'LXP'
p110
(S'LEXINGTON REALTY TRUST REIT'
p111
g3
S'8,182,714.40'
p112
tp113
sS'RHP'
p114
(S'RYMAN HOSPITALITY PROPERTIES REIT'
p115
g3
S'6,111,523.50'
p116
tp117
sS'RLJ'
p118
(S'RLJ LODGING TRUST REIT'
p119
g3
S'5,235,555.60'
p120
tp121
sS'MAA'
p122
(S'MID AMERICA APARTMENT COMMUNITIES'
p123
g3
S'38,187,615.51'
p124
tp125
sS'MAC'
p126
(S'MACERICH REIT'
p127
g3
S'3,101,670.88'
p128
tp129
sS'KIM'
p130
(S'KIMCO REALTY REIT CORP'
p131
g3
S'16,099,627.42'
p132
tp133
sS'EXR'
p134
(S'EXTRA SPACE STORAGE REIT INC'
p135
g3
S'35,372,679.84'
p136
tp137
sS'HR'
p138
(S'HEALTHCARE REALTY TRUST REIT INC'
p139
g3
S'12,467,511.59'
p140
tp141
sS'DEI'
p142
(S'DOUGLAS EMMETT REIT INC'
p143
g3
S'14,954,665.32'
p144
tp145
sS'PCH'
p146
(S'POTLATCHDELTIC CORP'
p147
g3
S'7,357,685.40'
p148
tp149
sS'PEAK'
p150
(S'HEALTHPEAK PROPERTIES INC'
p151
g3
S'39,625,936.00'
p152
tp153
sS'COLD'
p154
(S'AMERICOLD REALTY TRUST'
p155
g3
S'19,782,912.66'
p156
tp157
sS'AMH'
p158
(S'AMERICAN HOMES RENT REIT CLASS A'
p159
g3
S'20,069,467.38'
p160
tp161
sS'PGRE'
p162
(S'PARAMOUNT GROUP REIT INC'
p163
g3
S'5,012,336.70'
p164
tp165
sS'NLY'
p166
(S'ANNALY CAPITAL MANAGEMENT REIT INC'
p167
S'Financials'
p168
S'28,462,572.00'
p169
tp170
sS'CPT'
p171
(S'CAMDEN PROPERTY TRUST REIT'
p172
g3
S'26,117,019.36'
p173
tp174
sS'SBRA'
p175
(S'SABRA HEALTH CARE REIT INC'
p176
g3
S'9,251,466.30'
p177
tp178
sS'LSI'
p179
(S'LIFE STORAGE INC'
p180
g3
S'13,260,625.62'
p181
tp182
sS'TCO'
p183
(S'TAUBMAN CENTERS REIT INC'
p184
g3
S'6,896,117.25'
p185
tp186
sS'INVH'
p187
(S'INVITATION HOMES INC'
p188
g3
S'43,640,033.85'
p189
tp190
sS'PK'
p191
(S'PARK HOTELS RESORTS INC'
p192
g3
S'7,752,008.00'
p193
tp194
sS'GEO'
p195
(S'GEO GROUP REIT INC'
p196
g3
S'4,554,548.90'
p197
tp198
sS'AMT'
p199
(S'AMERICAN TOWER REIT CORP'
p200
g3
S'326,197,076.80'
p201
tp202
sS'AGNC'
p203
(S'AGNC INVESTMENT REIT CORP'
p204
g168
S'20,897,695.21'
p205
tp206
sS'BDN'
p207
(S'BRANDYWINE REALTY TRUST REIT'
p208
g3
S'5,684,110.96'
p209
tp210
sS'O'
p211
(S'REALTY INCOME REIT CORP'
p212
g3
S'62,111,867.43'
p213
tp214
sS'CSGP'
p215
(S'COSTAR GROUP INC'
p216
S'Industrials'
p217
S'78,613,496.88'
p218
tp219
sS'DLR'
p220
(S'DIGITAL REALTY TRUST REIT INC'
p221
g3
S'107,595,047.52'
p222
tp223
sS'BXMT'
p224
(S'BLACKSTONE MORTGAGE TRUST REIT CLA'
p225
g168
S'9,862,388.10'
p226
tp227
sS'APLE'
p228
(S'APPLE HOSPITALITY REIT INC'
p229
g3
S'6,834,170.72'
p230
tp231
sS'SHO'
p232
(S'SUNSTONE HOTEL INVESTORS REIT INC'
p233
g3
S'5,992,429.14'
p234
tp235
sS'HTA'
p236
(S'HEALTHCARE TRUST OF AMERICA REIT I'
p237
g3
S'17,324,424.20'
p238
tp239
sS'PSB'
p240
(S'PS BUSINESS PARKS REIT INC'
p241
g3
S'8,136,439.52'
p242
tp243
sS'PSA'
p244
(S'PUBLIC STORAGE REIT'
p245
g3
S'84,298,357.54'
p246
tp247
sS'MPW'
p248
(S'MEDICAL PROPERTIES TRUST REIT INC'
p249
g3
S'29,045,156.53'
p250
tp251
sS'IVR'
p252
(S'INVESCO MORTGAGE CAPITAL REIT INC'
p253
g168
S'2,069,573.80'
p254
tp255
sS'UE'
p256
(S'URBAN EDGE PROPERTIES'
p257
g3
S'4,018,628.13'
p258
tp259
sS'JLL'
p260
(S'JONES LANG LASALLE INC'
p261
g3
S'15,989,202.02'
p262
tp263
sS'AVB'
p264
(S'AVALONBAY COMMUNITIES REIT INC'
p265
g3
S'64,012,263.93'
p266
tp267
sS'ACC'
p268
(S'AMERICAN CAMPUS COMMUNITIES REIT I'
p269
g3
S'14,597,468.46'
p270
tp271
sS'FR'
p272
(S'FIRST INDUSTRIAL REALTY TRUST INC'
p273
g3
S'14,551,396.80'
p274
tp275
sS'COR'
p276
(S'CORESITE REALTY REIT CORP'
p277
g3
S'13,831,604.28'
p278
tp279
sS'DOC'
p280
(S'PHYSICIANS REALTY TRUST REIT'
p281
g3
S'10,523,382.84'
p282
tp283
sS'SUI'
p284
(S'SUN COMMUNITIES REIT INC'
p285
g3
S'38,349,307.68'
p286
tp287
sS'REXR'
p288
(S'REXFORD INDUSTRIAL REALTY REIT INC'
p289
g3
S'13,683,387.77'
p290
tp291
sS'REG'
p292
(S'REGENCY CENTERS REIT CORP'
p293
g3
S'22,258,840.00'
p294
tp295
sS'PEB'
p296
(S'PEBBLEBROOK HOTEL TRUST REIT'
p297
g3
S'5,765,234.88'
p298
tp299
sS'STWD'
p300
(S'STARWOOD PROPERTY TRUST REIT INC'
p301
g168
S'12,807,646.80'
p302
tp303
sS'WPC'
p304
(S'W. P. CAREY REIT INC'
p305
g3
S'35,029,141.55'
p306
tp307
sS'SRC'
p308
(S'SPIRIT REALTY CAPITAL REIT INC'
p309
g3
S'10,819,954.80'
p310
tp311
sS'VER'
p312
(S'VEREIT INC'
p313
g3
S'21,314,093.10'
p314
tp315
sS'CLI'
p316
(S'MACK-CALI REALTY REIT CORP'
p317
g3
S'4,539,185.70'
p318
tp319
sS'SITC'
p320
(S'SITE CENTERS CORP'
p321
g3
S'3,936,735.81'
p322
tp323
sS'CUZ'
p324
(S'COUSINS PROPERTIES REIT INC'
p325
g3
S'13,623,050.97'
p326
tp327
sS'MLPFT'
p328
(S'CASH COLLATERAL USD MLPFT'
p329
S'Cash and/or Derivatives'
p330
S'1,088,812.01'
p331
tp332
sS'PDM'
p333
(S'PIEDMONT OFFICE REALTY TRUST REIT'
p334
g3
S'6,505,454.08'
p335
tp336
sS'VTR'
p337
(S'VENTAS REIT INC'
p338
g3
S'41,939,348.05'
p339
tp340
sS'FRT'
p341
(S'FEDERAL REALTY INVESTMENT TRUST RE'
p342
g3
S'18,213,553.00'
p343
tp344
sS'ELS'
p345
(S'EQUITY LIFESTYLE PROPERTIES REIT I'
p346
g3
S'33,571,881.75'
p347
tp348
sS'BRX'
p349
(S'BRIXMOR PROPERTY GROUP REIT INC'
p350
g3
S'11,579,496.94'
p351
tp352
sS'PLD'
p353
(S'PROLOGIS REIT INC'
p354
g3
S'200,697,809.81'
p355
tp356
sS'KRC'
p357
(S'KILROY REALTY REIT CORP'
p358
g3
S'18,586,593.65'
p359
tp360
sS'OUT'
p361
(S'OUTFRONT MEDIA INC'
p362
g3
S'6,525,957.12'
p363
tp364
sS'USD'
p365
(S'USD CASH'
p366
g330
S'-13,803,284.33'
p367
tp368
sS'DJEU0'
p369
(S'DOW JONES US REAL ESTATE SEP 20'
p370
g330
S'0.00'
p371
tp372
sS'BXP'
p373
(S'BOSTON PROPERTIES REIT INC'
p374
g3
S'38,988,501.03'
p375
tp376
sS'AIV'
p377
(S'APARTMENT INVESTMENT AND MANAGEMEN'
p378
g3
S'17,068,976.91'
p379
tp380
sS'TWO'
p381
(S'TWO HARBORS INVESTMENT REIT CORP'
p382
g168
S'4,282,692.72'
p383
tp384
sS'CIM'
p385
(S'CHIMERA INVESTMENT CORP'
p386
g168
S'5,896,326.24'
p387
tp388
sS'XTSLA'
p389
(S'BLK CSH FND TREASURY SL AGENCY'
p390
g330
S'24,720,000.00'
p391
tp392
sS'XHR'
p393
(S'XENIA HOTELS RESORTS REIT INC'
p394
g3
S'3,699,570.60'
p395
tp396
sS'RPAI'
p397
(S'RETAIL PROPERTIES OF AMERICA REIT'
p398
g3
S'4,669,365.03'
p399
tp400
sS'LAMR'
p401
(S'LAMAR ADVERTISING COMPANY CLAS'
p402
g3
S'18,322,670.52'
p403
tp404
sS'HIW'
p405
(S'HIGHWOODS PROPERTIES REIT INC'
p406
g3
S'12,070,895.20'
p407
tp408
sS'NHI'
p409
(S'NATIONAL HEALTH INVESTORS REIT INC'
p410
g3
S'8,445,704.82'
p411
tp412
sS'JBGS'
p413
(S'JBG SMITH PROPERTIES'
p414
g3
S'10,694,639.52'
p415
tp416
sS'CUBE'
p417
(S'CUBESMART REIT'
p418
g3
S'15,896,052.90'
p419
tp420
sS'ESS'
p421
(S'ESSEX PROPERTY TRUST REIT INC'
p422
g3
S'45,897,250.76'
p423
tp424
sS'MFA'
p425
(S'MFA FINANCIAL REIT INC'
p426
g168
S'3,949,869.60'
p427
tp428
sS'HPP'
p429
(S'HUDSON PACIFIC PROPERTIES REIT INC'
p430
g3
S'11,571,122.24'
p431
tp432
sS'DHC'
p433
(S'DIVERSIFIED HEALTHCARE TRUST'
p434
g3
S'3,119,358.51'
p435
tp436
sS'IRM'
p437
(S'IRON MOUNTAIN INC'
p438
g3
S'22,652,408.00'
p439
tp440
sS'CBRE'
p441
(S'CBRE GROUP INC CLASS A'
p442
g3
S'45,444,247.52'
p443
tp444
sS'SLG'
p445
(S'SL GREEN REALTY REIT CORP'
p446
g3
S'12,939,646.31'
p447
tp448
sS'UDR'
p449
(S'UDR REIT INC'
p450
g3
S'31,783,329.71'
p451
tp452
sS'EQIX'
p453
(S'EQUINIX REIT INC'
p454
g3
S'148,643,592.12'
p455
tp456
sS'VICI'
p457
(S'VICI PPTYS INC'
p458
g3
S'29,794,167.60'
p459
tp460
sS'HHC'
p461
(S'HOWARD HUGHES CORP'
p462
g3
S'7,515,910.16'
p463
tp464
sS'NRZ'
p465
(S'NEW RESIDENTIAL INVESTMENT REIT CO'
p466
g168
S'9,570,858.36'
p467
tp468
sS'ARE'
p469
(S'ALEXANDRIA REAL ESTATE EQUITIES RE'
p470
g3
S'59,690,570.24'
p471
tp472
s.