(dp0
S'CRS'
p1
(S'CARPENTER TECHNOLOGY CORP'
p2
S'Materials'
p3
S'572,944.95'
p4
tp5
sS'NEM'
p6
(S'NEWMONT'
p7
g3
S'21,566,463.75'
p8
tp9
sS'CTVA'
p10
(S'CORTEVA INC'
p11
g3
S'9,742,566.84'
p12
tp13
sS'LIN'
p14
(S'LINDE PLC'
p15
g3
S'52,970,891.52'
p16
tp17
sS'EMN'
p18
(S'EASTMAN CHEMICAL'
p19
g3
S'4,537,463.04'
p20
tp21
sS'CMC'
p22
(S'COMMERCIAL METALS'
p23
g3
S'1,152,805.57'
p24
tp25
sS'XTSLA'
p26
(S'BLK CSH FND TREASURY SL AGENCY'
p27
S'Cash and/or Derivatives'
p28
S'1,917,000.00'
p29
tp30
sS'IFF'
p31
(S'INTERNATIONAL FLAVORS & FRAGRANCES'
p32
g3
S'6,501,304.46'
p33
tp34
sS'WLK'
p35
(S'WESTLAKE CHEMICAL CORP'
p36
g3
S'883,455.30'
p37
tp38
sS'SMG'
p39
(S'SCOTTS MIRACLE GRO'
p40
g3
S'2,437,284.50'
p41
tp42
sS'FUL'
p43
(S'HB FULLER'
p44
g3
S'1,012,651.43'
p45
tp46
sS'NEU'
p47
(S'NEWMARKET CORP'
p48
g3
S'1,434,214.98'
p49
tp50
sS'DOW'
p51
(S'DOW INC'
p52
g3
S'14,605,473.96'
p53
tp54
sS'NGVT'
p55
(S'INGEVITY CORP'
p56
g3
S'1,033,049.82'
p57
tp58
sS'PPG'
p59
(S'PPG INDUSTRIES INC'
p60
g3
S'11,696,919.56'
p61
tp62
sS'RS'
p63
(S'RELIANCE STEEL & ALUMINUM'
p64
g3
S'3,014,971.96'
p65
tp66
sS'FCX'
p67
(S'FREEPORT MCMORAN INC'
p68
g3
S'7,258,194.24'
p69
tp70
sS'VVV'
p71
(S'VALVOLINE INC'
p72
g3
S'1,792,972.23'
p73
tp74
sS'HUN'
p75
(S'HUNTSMAN CORP'
p76
g3
S'1,738,610.82'
p77
tp78
sS'ECL'
p79
(S'ECOLAB INC'
p80
g3
S'24,043,455.52'
p81
tp82
sS'OLN'
p83
(S'OLIN CORP'
p84
g3
S'956,846.00'
p85
tp86
sS'FMC'
p87
(S'FMC CORP'
p88
g3
S'6,078,084.99'
p89
tp90
sS'FAU0'
p91
(S'S&P MID 400 EMINI SEP 20'
p92
g28
S'0.00'
p93
tp94
sS'POL'
p95
(S'POLYONE CORP'
p96
g3
S'1,084,190.72'
p97
tp98
sS'SXT'
p99
(S'SENSIENT TECHNOLOGIES CORP'
p100
g3
S'1,022,397.00'
p101
tp102
sS'LYB'
p103
(S'LYONDELLBASELL INDUSTRIES NV CLASS'
p104
g3
S'8,141,041.98'
p105
tp106
sS'NUE'
p107
(S'NUCOR CORP'
p108
g3
S'6,251,169.28'
p109
tp110
sS'RPM'
p111
(S'RPM INTERNATIONAL INC'
p112
g3
S'4,633,815.76'
p113
tp114
sS'DD'
p115
(S'DUPONT DE NEMOURS INC'
p116
g3
S'18,452,214.88'
p117
tp118
sS'AA'
p119
(S'ALCOA CORP'
p120
g3
S'1,024,058.30'
p121
tp122
sS'CC'
p123
(S'CHEMOURS'
p124
g3
S'1,214,478.72'
p125
tp126
sS'IXIU0'
p127
(S'XAI INDUSTRIAL SEP 20'
p128
g28
g93
tp129
sS'CF'
p130
(S'CF INDUSTRIES HOLDINGS INC'
p131
g3
S'3,089,029.98'
p132
tp133
sS'CE'
p134
(S'CELANESE CORP'
p135
g3
S'5,046,984.54'
p136
tp137
sS'WOR'
p138
(S'WORTHINGTON INDUSTRIES INC'
p139
g3
S'617,510.52'
p140
tp141
sS'GRA'
p142
(S'WR GRACE'
p143
g3
S'1,318,770.96'
p144
tp145
sS'X'
p146
(S'US STEEL CORP'
p147
g3
S'656,490.65'
p148
tp149
sS'ATI'
p150
(S'ALLEGHENY TECHNOLOGIES INC'
p151
g3
S'627,332.80'
p152
tp153
sS'USD'
p154
(S'USD CASH'
p155
g28
S'-1,157,587.07'
p156
tp157
sS'RGLD'
p158
(S'ROYAL GOLD INC'
p159
g3
S'3,490,628.48'
p160
tp161
sS'ESI'
p162
(S'ELEMENT SOLUTIONS INC'
p163
g3
S'1,138,885.76'
p164
tp165
sS'BTU'
p166
(S'PEABODY ENERGY CORP'
p167
S'Energy'
p168
S'105,675.90'
p169
tp170
sS'STLD'
p171
(S'STEEL DYNAMICS INC'
p172
g3
S'2,732,253.28'
p173
tp174
sS'ASH'
p175
(S'ASHLAND GLOBAL'
p176
g3
S'1,971,492.10'
p177
tp178
sS'MOS'
p179
(S'MOSAIC'
p180
g3
S'2,168,135.97'
p181
tp182
sS'AXTA'
p183
(S'AXALTA COATING SYSTEMS LTD'
p184
g3
S'2,206,161.30'
p185
tp186
sS'ALB'
p187
(S'ALBEMARLE CORP'
p188
g3
S'3,958,626.30'
p189
tp190
sS'ARNC'
p191
(S'ARCONIC CORP'
p192
g3
S'722,088.24'
p193
tp194
sS'CBT'
p195
(S'CABOT CORP'
p196
g3
S'1,007,071.52'
p197
tp198
sS'WFFUT'
p199
(S'CASH COLLATERAL USD WFFUT'
p200
g28
S'84,000.00'
p201
tp202
sS'UFS'
p203
(S'DOMTAR CORP'
p204
g3
S'599,738.24'
p205
tp206
sS'APD'
p207
(S'AIR PRODUCTS AND CHEMICALS INC'
p208
g3
S'24,864,398.64'
p209
tp210
s.